///////////////////////////////////////////////////////////////////////////////
//                                                                            /
// IAR ANSI C/C++ Compiler V6.10.1.52143/W32 for ARM    24/Feb/2012  22:10:00 /
// Copyright 1999-2010 IAR Systems AB.                                        /
//                                                                            /
//    Cpu mode     =  thumb                                                   /
//    Endian       =  little                                                  /
//    Source file  =  E:\kinetis_IAR\13_LQ_OLED_K60\src\Sources\C\LQ12864.c   /
//    Command line =  E:\kinetis_IAR\13_LQ_OLED_K60\src\Sources\C\LQ12864.c   /
//                    -D IAR -D TWR_K60N512 -lCN                              /
//                    E:\kinetis_IAR\13_LQ_OLED_K60\bin\Ram\List\ -lB         /
//                    E:\kinetis_IAR\13_LQ_OLED_K60\bin\Ram\List\ -o          /
//                    E:\kinetis_IAR\13_LQ_OLED_K60\bin\Ram\Obj\ --no_cse     /
//                    --no_unroll --no_inline --no_code_motion --no_tbaa      /
//                    --no_clustering --no_scheduling --debug                 /
//                    --endian=little --cpu=Cortex-M4 -e --fpu=None           /
//                    --dlib_config "C:\Program Files (x86)\IAR               /
//                    Systems\Embedded Workbench                              /
//                    6.0\arm\INC\c\DLib_Config_Normal.h" -I                  /
//                    E:\kinetis_IAR\13_LQ_OLED_K60\src\Sources\H\ -I         /
//                    E:\kinetis_IAR\13_LQ_OLED_K60\src\Sources\H\Component_H /
//                    \ -I E:\kinetis_IAR\13_LQ_OLED_K60\src\Sources\H\Frame_ /
//                    H\ -Ol --use_c++_inline                                 /
//    List file    =  E:\kinetis_IAR\13_LQ_OLED_K60\bin\Ram\List\LQ12864.s    /
//                                                                            /
//                                                                            /
///////////////////////////////////////////////////////////////////////////////

        NAME LQ12864

        PUBLIC Draw_BMP
        PUBLIC Draw_LQLogo
        PUBLIC Draw_LibLogo
        PUBLIC F14x16
        PUBLIC F14x16_Idx
        PUBLIC F6x8
        PUBLIC F8X16
        PUBLIC LCD_CLS
        PUBLIC LCD_DLY_ms
        PUBLIC LCD_Fill
        PUBLIC LCD_Init
        PUBLIC LCD_P14x16Str
        PUBLIC LCD_P6x8Str
        PUBLIC LCD_P8x16Str
        PUBLIC LCD_Print
        PUBLIC LCD_PutPixel
        PUBLIC LCD_Rectangle
        PUBLIC LCD_Set_Pos
        PUBLIC LCD_WrCmd
        PUBLIC LCD_WrDat
        PUBLIC LIBLOGO60x58
        PUBLIC longqiu96x64

// E:\kinetis_IAR\13_LQ_OLED_K60\src\Sources\C\LQ12864.c
//    1 /********************************************
//    2 龙丘MC9S12XS128多功能开发板 
//    3 Designed by Chiu Sir
//    4 E-mail:chiusir@yahoo.cn
//    5 软件版本:V1.1
//    6 最后更新:2011年9月18日
//    7 相关信息参考下列地址：
//    8 网站：  http://www.lqist.cn
//    9 淘宝店：http://shop36265907.taobao.com
//   10 ------------------------------------
//   11 Code Warrior 5.0/1
//   12 Target : MC9S12XS128
//   13 Crystal: 16.000Mhz
//   14 busclock:16.000MHz
//   15 pllclock:32.000MHz    
//   16  
//   17 使用说明：
//   18 OLED电源使用3.3V。   
//   19 ----------------
//   20 G    电源地
//   21 3.3V 接3.3V电源
//   22 D0   PORTA_PA14  
//   23 D1   PORTA_PA15
//   24 RST  PORTA_PA16 
//   25 DC   PORTA_PA17
//   26 CS   已接地，不用接
//   27 ============================================
//   28 OLED电源使用5V。   
//   29 ----------------
//   30 G    电源地
//   31 3.3V 接5V电源，电源跟模块之间串接100欧姆电阻，并加3.3V钳位二极管
//   32 D0   PORTA_PA14 单片机跟模块之间串接1k-3.3k电阻 
//   33 D1   PORTA_PA15 单片机跟模块之间串接1k-3.3k电阻 
//   34 RST  PORTA_PA16 单片机跟模块之间串接1k-3.3k电阻 
//   35 DC   PORTA_PA17 单片机跟模块之间串接1k-3.3k电阻 
//   36 CS   已接地，不用接     
//   37 ============================================     
//   38 如果用户使用的是5V单片机，请看用户手册，切勿烧毁模块！  
//   39 ============================================*/
//   40 #include "includes.h"
//   41 #include "LQ12864.h"
//   42 
//   43 //GPIOA_PDOR &= ~GPIO_PDOR_PDO(GPIO_PIN(14));	//IO口输出低电平，亮
//   44 //GPIOA_PDOR |=  GPIO_PDOR_PDO(GPIO_PIN(14));	//IO口输出高电平，灭
//   45 //GPIOA_PDOR &= ~GPIO_PDOR_PDO(GPIO_PIN(15));	//IO口输出低电平，亮
//   46 //GPIOA_PDOR |=  GPIO_PDOR_PDO(GPIO_PIN(15));	//IO口输出高电平，灭
//   47 //GPIOA_PDOR &= ~GPIO_PDOR_PDO(GPIO_PIN(16));	//IO口输出低电平，亮
//   48 //GPIOA_PDOR |=  GPIO_PDOR_PDO(GPIO_PIN(16));	//IO口输出高电平，灭
//   49 //GPIOA_PDOR &= ~GPIO_PDOR_PDO(GPIO_PIN(17));	//IO口输出低电平，亮
//   50 //GPIOA_PDOR |=  GPIO_PDOR_PDO(GPIO_PIN(17));	//IO口输出高电平，灭
//   51 
//   52 #define XLevelL		0x00
//   53 #define XLevelH		0x10
//   54 #define XLevel		((XLevelH&0x0F)*16+XLevelL)
//   55 #define Max_Column	128
//   56 #define Max_Row		  64
//   57 #define	Brightness	0xCF 
//   58 
//   59 /*
//   60 4线SPI使用说明：
//   61 VBT 供内部DC-DC电压，3.3~4.3V，如果使用5V电压，为保险起见串一个100~500欧的电阻
//   62 VCC 供内部逻辑电压 1.8~6V   
//   63 GND 地
//   64 
//   65 BS0 低电平
//   66 BS1 低电平
//   67 BS2 低电平
//   68 
//   69 CS  片选管脚
//   70 DC  命令数据选择管脚
//   71 RES 模块复位管脚 
//   72 D0（SCLK） ，时钟脚，由MCU控制
//   73 D1（MOSI） ，主输出从输入数据脚，由MCU控制
//   74 
//   75 D2 悬空      
//   76 D3-D7 ， 低电平 ， 也可悬空，但最好设为低电平
//   77 RD  低电平 ，也可悬空，但最好设为低电平
//   78 RW  低电平 ，也可悬空，但最好设为低电平
//   79 RD  低电平 ，也可悬空，但最好设为低电平   
//   80 */
//   81 
//   82 #define X_WIDTH 128
//   83 #define Y_WIDTH 64
//   84 //======================================
//   85 const byte F6x8[][6] =
//   86 {
//   87     { 0x00, 0x00, 0x00, 0x00, 0x00, 0x00 },   // sp
//   88     { 0x00, 0x00, 0x00, 0x2f, 0x00, 0x00 },   // !
//   89     { 0x00, 0x00, 0x07, 0x00, 0x07, 0x00 },   // "
//   90     { 0x00, 0x14, 0x7f, 0x14, 0x7f, 0x14 },   // #
//   91     { 0x00, 0x24, 0x2a, 0x7f, 0x2a, 0x12 },   // $
//   92     { 0x00, 0x62, 0x64, 0x08, 0x13, 0x23 },   // %
//   93     { 0x00, 0x36, 0x49, 0x55, 0x22, 0x50 },   // &
//   94     { 0x00, 0x00, 0x05, 0x03, 0x00, 0x00 },   // '
//   95     { 0x00, 0x00, 0x1c, 0x22, 0x41, 0x00 },   // (
//   96     { 0x00, 0x00, 0x41, 0x22, 0x1c, 0x00 },   // )
//   97     { 0x00, 0x14, 0x08, 0x3E, 0x08, 0x14 },   // *
//   98     { 0x00, 0x08, 0x08, 0x3E, 0x08, 0x08 },   // +
//   99     { 0x00, 0x00, 0x00, 0xA0, 0x60, 0x00 },   // ,
//  100     { 0x00, 0x08, 0x08, 0x08, 0x08, 0x08 },   // -
//  101     { 0x00, 0x00, 0x60, 0x60, 0x00, 0x00 },   // .
//  102     { 0x00, 0x20, 0x10, 0x08, 0x04, 0x02 },   // /
//  103     { 0x00, 0x3E, 0x51, 0x49, 0x45, 0x3E },   // 0
//  104     { 0x00, 0x00, 0x42, 0x7F, 0x40, 0x00 },   // 1
//  105     { 0x00, 0x42, 0x61, 0x51, 0x49, 0x46 },   // 2
//  106     { 0x00, 0x21, 0x41, 0x45, 0x4B, 0x31 },   // 3
//  107     { 0x00, 0x18, 0x14, 0x12, 0x7F, 0x10 },   // 4
//  108     { 0x00, 0x27, 0x45, 0x45, 0x45, 0x39 },   // 5
//  109     { 0x00, 0x3C, 0x4A, 0x49, 0x49, 0x30 },   // 6
//  110     { 0x00, 0x01, 0x71, 0x09, 0x05, 0x03 },   // 7
//  111     { 0x00, 0x36, 0x49, 0x49, 0x49, 0x36 },   // 8
//  112     { 0x00, 0x06, 0x49, 0x49, 0x29, 0x1E },   // 9
//  113     { 0x00, 0x00, 0x36, 0x36, 0x00, 0x00 },   // :
//  114     { 0x00, 0x00, 0x56, 0x36, 0x00, 0x00 },   // ;
//  115     { 0x00, 0x08, 0x14, 0x22, 0x41, 0x00 },   // <
//  116     { 0x00, 0x14, 0x14, 0x14, 0x14, 0x14 },   // =
//  117     { 0x00, 0x00, 0x41, 0x22, 0x14, 0x08 },   // >
//  118     { 0x00, 0x02, 0x01, 0x51, 0x09, 0x06 },   // ?
//  119     { 0x00, 0x32, 0x49, 0x59, 0x51, 0x3E },   // @
//  120     { 0x00, 0x7C, 0x12, 0x11, 0x12, 0x7C },   // A
//  121     { 0x00, 0x7F, 0x49, 0x49, 0x49, 0x36 },   // B
//  122     { 0x00, 0x3E, 0x41, 0x41, 0x41, 0x22 },   // C
//  123     { 0x00, 0x7F, 0x41, 0x41, 0x22, 0x1C },   // D
//  124     { 0x00, 0x7F, 0x49, 0x49, 0x49, 0x41 },   // E
//  125     { 0x00, 0x7F, 0x09, 0x09, 0x09, 0x01 },   // F
//  126     { 0x00, 0x3E, 0x41, 0x49, 0x49, 0x7A },   // G
//  127     { 0x00, 0x7F, 0x08, 0x08, 0x08, 0x7F },   // H
//  128     { 0x00, 0x00, 0x41, 0x7F, 0x41, 0x00 },   // I
//  129     { 0x00, 0x20, 0x40, 0x41, 0x3F, 0x01 },   // J
//  130     { 0x00, 0x7F, 0x08, 0x14, 0x22, 0x41 },   // K
//  131     { 0x00, 0x7F, 0x40, 0x40, 0x40, 0x40 },   // L
//  132     { 0x00, 0x7F, 0x02, 0x0C, 0x02, 0x7F },   // M
//  133     { 0x00, 0x7F, 0x04, 0x08, 0x10, 0x7F },   // N
//  134     { 0x00, 0x3E, 0x41, 0x41, 0x41, 0x3E },   // O
//  135     { 0x00, 0x7F, 0x09, 0x09, 0x09, 0x06 },   // P
//  136     { 0x00, 0x3E, 0x41, 0x51, 0x21, 0x5E },   // Q
//  137     { 0x00, 0x7F, 0x09, 0x19, 0x29, 0x46 },   // R
//  138     { 0x00, 0x46, 0x49, 0x49, 0x49, 0x31 },   // S
//  139     { 0x00, 0x01, 0x01, 0x7F, 0x01, 0x01 },   // T
//  140     { 0x00, 0x3F, 0x40, 0x40, 0x40, 0x3F },   // U
//  141     { 0x00, 0x1F, 0x20, 0x40, 0x20, 0x1F },   // V
//  142     { 0x00, 0x3F, 0x40, 0x38, 0x40, 0x3F },   // W
//  143     { 0x00, 0x63, 0x14, 0x08, 0x14, 0x63 },   // X
//  144     { 0x00, 0x07, 0x08, 0x70, 0x08, 0x07 },   // Y
//  145     { 0x00, 0x61, 0x51, 0x49, 0x45, 0x43 },   // Z
//  146     { 0x00, 0x00, 0x7F, 0x41, 0x41, 0x00 },   // [
//  147     { 0x00, 0x55, 0x2A, 0x55, 0x2A, 0x55 },   // 55
//  148     { 0x00, 0x00, 0x41, 0x41, 0x7F, 0x00 },   // ]
//  149     { 0x00, 0x04, 0x02, 0x01, 0x02, 0x04 },   // ^
//  150     { 0x00, 0x40, 0x40, 0x40, 0x40, 0x40 },   // _
//  151     { 0x00, 0x00, 0x01, 0x02, 0x04, 0x00 },   // '
//  152     { 0x00, 0x20, 0x54, 0x54, 0x54, 0x78 },   // a
//  153     { 0x00, 0x7F, 0x48, 0x44, 0x44, 0x38 },   // b
//  154     { 0x00, 0x38, 0x44, 0x44, 0x44, 0x20 },   // c
//  155     { 0x00, 0x38, 0x44, 0x44, 0x48, 0x7F },   // d
//  156     { 0x00, 0x38, 0x54, 0x54, 0x54, 0x18 },   // e
//  157     { 0x00, 0x08, 0x7E, 0x09, 0x01, 0x02 },   // f
//  158     { 0x00, 0x18, 0xA4, 0xA4, 0xA4, 0x7C },   // g
//  159     { 0x00, 0x7F, 0x08, 0x04, 0x04, 0x78 },   // h
//  160     { 0x00, 0x00, 0x44, 0x7D, 0x40, 0x00 },   // i
//  161     { 0x00, 0x40, 0x80, 0x84, 0x7D, 0x00 },   // j
//  162     { 0x00, 0x7F, 0x10, 0x28, 0x44, 0x00 },   // k
//  163     { 0x00, 0x00, 0x41, 0x7F, 0x40, 0x00 },   // l
//  164     { 0x00, 0x7C, 0x04, 0x18, 0x04, 0x78 },   // m
//  165     { 0x00, 0x7C, 0x08, 0x04, 0x04, 0x78 },   // n
//  166     { 0x00, 0x38, 0x44, 0x44, 0x44, 0x38 },   // o
//  167     { 0x00, 0xFC, 0x24, 0x24, 0x24, 0x18 },   // p
//  168     { 0x00, 0x18, 0x24, 0x24, 0x18, 0xFC },   // q
//  169     { 0x00, 0x7C, 0x08, 0x04, 0x04, 0x08 },   // r
//  170     { 0x00, 0x48, 0x54, 0x54, 0x54, 0x20 },   // s
//  171     { 0x00, 0x04, 0x3F, 0x44, 0x40, 0x20 },   // t
//  172     { 0x00, 0x3C, 0x40, 0x40, 0x20, 0x7C },   // u
//  173     { 0x00, 0x1C, 0x20, 0x40, 0x20, 0x1C },   // v
//  174     { 0x00, 0x3C, 0x40, 0x30, 0x40, 0x3C },   // w
//  175     { 0x00, 0x44, 0x28, 0x10, 0x28, 0x44 },   // x
//  176     { 0x00, 0x1C, 0xA0, 0xA0, 0xA0, 0x7C },   // y
//  177     { 0x00, 0x44, 0x64, 0x54, 0x4C, 0x44 },   // z
//  178     { 0x14, 0x14, 0x14, 0x14, 0x14, 0x14 }    // horiz lines
//  179 };
//  180 const byte F14x16_Idx[] = 
//  181 {
//  182 	"北京龙丘邱科技开发板智能车首选液晶室温度按键次电压"
//  183 };
//  184 const byte F14x16[] = {  
//  185 0x20,0x20,0x20,0x20,0xFF,0x00,0x00,0x00,0xFF,0x40,0x20,0x30,0x18,0x10,
//  186 0x30,0x18,0x08,0x04,0x7F,0x00,0x00,0x00,0x3F,0x40,0x40,0x40,0x40,0x78,//北0
//  187 0x04,0x04,0xE4,0x24,0x24,0x25,0x26,0x24,0x24,0x24,0xE4,0x06,0x04,0x00,
//  188 0x20,0x10,0x19,0x0D,0x41,0x81,0x7F,0x01,0x01,0x05,0x0D,0x38,0x10,0x00,//京1
//  189 0x10,0x10,0x10,0x10,0x10,0xFF,0x10,0xF0,0x12,0x1C,0xD0,0x10,0x10,0x10,
//  190 0x40,0x20,0x10,0x0C,0x03,0x10,0x08,0x3F,0x42,0x41,0x40,0x40,0x40,0x70,//龙2
//  191 0x00,0x00,0xFE,0x84,0x84,0x84,0x84,0x82,0x82,0x82,0x82,0xC0,0x80,0x00,
//  192 0x20,0x20,0x3F,0x20,0x20,0x20,0x20,0x20,0x3F,0x20,0x20,0x20,0x30,0x20,//丘3
//  193 0x00,0xFC,0x24,0x24,0xE2,0x22,0x22,0x00,0xFE,0x02,0x22,0x52,0x8E,0x02,
//  194 0x10,0x1F,0x10,0x08,0x0F,0x08,0x08,0x00,0xFF,0x00,0x08,0x08,0x10,0x0F,//邱4
//  195 0x12,0x92,0x72,0xFE,0x51,0x91,0x00,0x22,0xCC,0x00,0x00,0xFF,0x00,0x00,
//  196 0x02,0x01,0x00,0xFF,0x00,0x04,0x04,0x04,0x02,0x02,0x02,0xFF,0x01,0x01,//科5
//  197 0x08,0x88,0xFF,0x48,0x28,0x00,0xC8,0x48,0x48,0x7F,0x48,0xC8,0x48,0x08,
//  198 0x41,0x80,0x7F,0x00,0x40,0x40,0x20,0x13,0x0C,0x0C,0x12,0x21,0x60,0x20,//技6
//  199 0x42,0x42,0x42,0x42,0xFE,0x42,0x42,0x42,0x42,0xFE,0x42,0x42,0x42,0x42,
//  200 0x40,0x20,0x10,0x0C,0x03,0x00,0x00,0x00,0x00,0x7F,0x00,0x00,0x00,0x00,//开7
//  201 0x10,0x3E,0x10,0x10,0xF0,0x9F,0x90,0x90,0x92,0x94,0x1C,0x10,0x10,0x10,
//  202 0x20,0x10,0x88,0x87,0x41,0x46,0x28,0x10,0x28,0x27,0x40,0xC0,0x40,0x00,//发8
//  203 0x10,0xD0,0xFF,0x50,0x90,0x00,0xFE,0x62,0xA2,0x22,0x21,0xA1,0x61,0x00,
//  204 0x03,0x00,0x7F,0x00,0x11,0x0E,0x41,0x20,0x11,0x0A,0x0E,0x31,0x60,0x20,//板9
//  205 0x14,0x13,0x92,0x7E,0x32,0x52,0x92,0x00,0x7C,0x44,0x44,0x44,0x7C,0x00,
//  206 0x01,0x01,0x00,0xFF,0x49,0x49,0x49,0x49,0x49,0x49,0xFF,0x00,0x00,0x00,//智10
//  207 0xB8,0x97,0x92,0x90,0x94,0xB8,0x10,0x00,0x7F,0x48,0x48,0x44,0x74,0x20,
//  208 0xFF,0x0A,0x0A,0x4A,0x8A,0x7F,0x00,0x00,0x3F,0x44,0x44,0x42,0x72,0x20,//能11
//  209 0x04,0x84,0xC4,0xA4,0x9C,0x87,0x84,0xF4,0x84,0x84,0x84,0x84,0x84,0x00,
//  210 0x04,0x04,0x04,0x04,0x04,0x04,0x04,0xFF,0x04,0x04,0x04,0x04,0x04,0x04,//车12
//  211 0x04,0x04,0xE4,0x25,0x26,0x34,0x2C,0x24,0x24,0x26,0xE5,0x04,0x04,0x04,
//  212 0x00,0x00,0x7F,0x25,0x25,0x25,0x25,0x25,0x25,0x25,0x7F,0x00,0x00,0x00,//首13
//  213 0x40,0x42,0xCC,0x00,0x50,0x4E,0xC8,0x48,0x7F,0xC8,0x48,0x48,0x40,0x00,
//  214 0x40,0x20,0x1F,0x20,0x48,0x46,0x41,0x40,0x40,0x47,0x48,0x48,0x4E,0x40,//选14
//  215 0x61,0x06,0xE0,0x18,0x84,0xE4,0x1C,0x84,0x65,0xBE,0x24,0xA4,0x64,0x04,
//  216 0x04,0xFF,0x00,0x01,0x00,0xFF,0x41,0x21,0x12,0x0C,0x1B,0x61,0xC0,0x40,//液15
//  217 0x00,0x00,0x00,0x7E,0x2A,0x2A,0x2A,0x2A,0x2A,0x2A,0x7E,0x00,0x00,0x00,
//  218 0x7F,0x25,0x25,0x25,0x25,0x7F,0x00,0x00,0x7F,0x25,0x25,0x25,0x25,0x7F,//晶16
//  219 0x10,0x2C,0x24,0xA4,0x64,0x25,0x26,0x24,0x24,0xA4,0x24,0x34,0x2C,0x04,
//  220 0x40,0x48,0x49,0x49,0x49,0x49,0x7F,0x49,0x49,0x49,0x4B,0x48,0x40,0x40,//室17
//  221 0x21,0x86,0x70,0x00,0x7E,0x4A,0x4A,0x4A,0x4A,0x4A,0x7E,0x00,0x00,0x00,
//  222 0xFE,0x01,0x40,0x7F,0x41,0x41,0x7F,0x41,0x41,0x7F,0x41,0x41,0x7F,0x40,//温18
//  223 0x00,0xFC,0x04,0x24,0x24,0xFC,0xA5,0xA6,0xA4,0xFC,0x24,0x24,0x24,0x04,
//  224 0x60,0x1F,0x80,0x80,0x42,0x46,0x2A,0x12,0x12,0x2A,0x26,0x42,0xC0,0x40,//度19
//  225 0x10,0x10,0xFF,0x90,0x50,0x98,0x88,0x88,0xE9,0x8E,0x88,0x88,0x98,0x88,
//  226 0x42,0x81,0x7F,0x00,0x40,0x40,0x26,0x25,0x18,0x08,0x16,0x31,0x60,0x20,//按20
//  227 0x30,0xEF,0x28,0x28,0x44,0x64,0xDC,0x10,0x54,0xFF,0x54,0x54,0x7C,0x10,
//  228 0x01,0x7F,0x21,0x51,0x22,0x14,0x0F,0x14,0x25,0x3F,0x45,0x45,0x45,0x44,//键21
//  229 0x02,0x1C,0xC0,0x30,0x4C,0x30,0x0F,0x08,0xF8,0x08,0x08,0x28,0x18,0x08,
//  230 0x5E,0x43,0x20,0x20,0x10,0x08,0x04,0x03,0x01,0x06,0x08,0x30,0x60,0x20,//次22
//  231 0x00,0xF8,0x48,0x48,0x48,0x48,0xFF,0x48,0x48,0x48,0x48,0xF8,0x00,0x00,
//  232 0x00,0x0F,0x04,0x04,0x04,0x04,0x3F,0x44,0x44,0x44,0x44,0x4F,0x40,0x70,//电23
//  233 0x00,0xFE,0x02,0x42,0x42,0x42,0x42,0xFA,0x42,0x42,0x42,0x62,0x42,0x02,
//  234 0x18,0x27,0x20,0x20,0x20,0x20,0x20,0x3F,0x20,0x21,0x2E,0x24,0x20,0x20,//压24  
//  235 };
//  236 
//  237 //======================================================
//  238 // 128X64I液晶底层驱动[8X16]字体库
//  239 // 设计者: powerint
//  240 // 描  述: [8X16]西文字符的字模数据 (纵向取模,字节倒序)
//  241 // !"#$%&'()*+,-./0123456789:;<=>?@ABCDEFGHIJKLMNOPQRSTUVWXYZ[\]^_`abcdefghijklmnopqrstuvwxyz{|}~
//  242 //======================================================
//  243 const byte F8X16[]=
//  244 {
//  245 	0x00,0x00,0x00,0x00,0x00,0x00,0x00,0x00,0x00,0x00,0x00,0x00,0x00,0x00,0x00,0x00,// 0
//  246   0x00,0x00,0x00,0xF8,0x00,0x00,0x00,0x00,0x00,0x00,0x00,0x33,0x30,0x00,0x00,0x00,//!1
//  247   0x00,0x10,0x0C,0x06,0x10,0x0C,0x06,0x00,0x00,0x00,0x00,0x00,0x00,0x00,0x00,0x00,//"2
//  248   0x40,0xC0,0x78,0x40,0xC0,0x78,0x40,0x00,0x04,0x3F,0x04,0x04,0x3F,0x04,0x04,0x00,//#3
//  249   0x00,0x70,0x88,0xFC,0x08,0x30,0x00,0x00,0x00,0x18,0x20,0xFF,0x21,0x1E,0x00,0x00,//$4
//  250   0xF0,0x08,0xF0,0x00,0xE0,0x18,0x00,0x00,0x00,0x21,0x1C,0x03,0x1E,0x21,0x1E,0x00,//%5
//  251   0x00,0xF0,0x08,0x88,0x70,0x00,0x00,0x00,0x1E,0x21,0x23,0x24,0x19,0x27,0x21,0x10,//&6
//  252   0x10,0x16,0x0E,0x00,0x00,0x00,0x00,0x00,0x00,0x00,0x00,0x00,0x00,0x00,0x00,0x00,//'7
//  253   0x00,0x00,0x00,0xE0,0x18,0x04,0x02,0x00,0x00,0x00,0x00,0x07,0x18,0x20,0x40,0x00,//(8
//  254   0x00,0x02,0x04,0x18,0xE0,0x00,0x00,0x00,0x00,0x40,0x20,0x18,0x07,0x00,0x00,0x00,//)9
//  255   0x40,0x40,0x80,0xF0,0x80,0x40,0x40,0x00,0x02,0x02,0x01,0x0F,0x01,0x02,0x02,0x00,//*10
//  256   0x00,0x00,0x00,0xF0,0x00,0x00,0x00,0x00,0x01,0x01,0x01,0x1F,0x01,0x01,0x01,0x00,//+11
//  257   0x00,0x00,0x00,0x00,0x00,0x00,0x00,0x00,0x80,0xB0,0x70,0x00,0x00,0x00,0x00,0x00,//,12
//  258   0x00,0x00,0x00,0x00,0x00,0x00,0x00,0x00,0x00,0x01,0x01,0x01,0x01,0x01,0x01,0x01,//-13
//  259   0x00,0x00,0x00,0x00,0x00,0x00,0x00,0x00,0x00,0x30,0x30,0x00,0x00,0x00,0x00,0x00,//.14
//  260   0x00,0x00,0x00,0x00,0x80,0x60,0x18,0x04,0x00,0x60,0x18,0x06,0x01,0x00,0x00,0x00,///15
//  261   0x00,0xE0,0x10,0x08,0x08,0x10,0xE0,0x00,0x00,0x0F,0x10,0x20,0x20,0x10,0x0F,0x00,//016
//  262   0x00,0x10,0x10,0xF8,0x00,0x00,0x00,0x00,0x00,0x20,0x20,0x3F,0x20,0x20,0x00,0x00,//117
//  263   0x00,0x70,0x08,0x08,0x08,0x88,0x70,0x00,0x00,0x30,0x28,0x24,0x22,0x21,0x30,0x00,//218
//  264   0x00,0x30,0x08,0x88,0x88,0x48,0x30,0x00,0x00,0x18,0x20,0x20,0x20,0x11,0x0E,0x00,//319
//  265   0x00,0x00,0xC0,0x20,0x10,0xF8,0x00,0x00,0x00,0x07,0x04,0x24,0x24,0x3F,0x24,0x00,//420
//  266   0x00,0xF8,0x08,0x88,0x88,0x08,0x08,0x00,0x00,0x19,0x21,0x20,0x20,0x11,0x0E,0x00,//521
//  267   0x00,0xE0,0x10,0x88,0x88,0x18,0x00,0x00,0x00,0x0F,0x11,0x20,0x20,0x11,0x0E,0x00,//622
//  268   0x00,0x38,0x08,0x08,0xC8,0x38,0x08,0x00,0x00,0x00,0x00,0x3F,0x00,0x00,0x00,0x00,//723
//  269   0x00,0x70,0x88,0x08,0x08,0x88,0x70,0x00,0x00,0x1C,0x22,0x21,0x21,0x22,0x1C,0x00,//824
//  270   0x00,0xE0,0x10,0x08,0x08,0x10,0xE0,0x00,0x00,0x00,0x31,0x22,0x22,0x11,0x0F,0x00,//925
//  271   0x00,0x00,0x00,0xC0,0xC0,0x00,0x00,0x00,0x00,0x00,0x00,0x30,0x30,0x00,0x00,0x00,//:26
//  272   0x00,0x00,0x00,0x80,0x00,0x00,0x00,0x00,0x00,0x00,0x80,0x60,0x00,0x00,0x00,0x00,//;27
//  273   0x00,0x00,0x80,0x40,0x20,0x10,0x08,0x00,0x00,0x01,0x02,0x04,0x08,0x10,0x20,0x00,//<28
//  274   0x40,0x40,0x40,0x40,0x40,0x40,0x40,0x00,0x04,0x04,0x04,0x04,0x04,0x04,0x04,0x00,//=29
//  275   0x00,0x08,0x10,0x20,0x40,0x80,0x00,0x00,0x00,0x20,0x10,0x08,0x04,0x02,0x01,0x00,//>30
//  276   0x00,0x70,0x48,0x08,0x08,0x08,0xF0,0x00,0x00,0x00,0x00,0x30,0x36,0x01,0x00,0x00,//?31
//  277   0xC0,0x30,0xC8,0x28,0xE8,0x10,0xE0,0x00,0x07,0x18,0x27,0x24,0x23,0x14,0x0B,0x00,//@32
//  278   0x00,0x00,0xC0,0x38,0xE0,0x00,0x00,0x00,0x20,0x3C,0x23,0x02,0x02,0x27,0x38,0x20,//A33
//  279   0x08,0xF8,0x88,0x88,0x88,0x70,0x00,0x00,0x20,0x3F,0x20,0x20,0x20,0x11,0x0E,0x00,//B34
//  280   0xC0,0x30,0x08,0x08,0x08,0x08,0x38,0x00,0x07,0x18,0x20,0x20,0x20,0x10,0x08,0x00,//C35
//  281   0x08,0xF8,0x08,0x08,0x08,0x10,0xE0,0x00,0x20,0x3F,0x20,0x20,0x20,0x10,0x0F,0x00,//D36
//  282   0x08,0xF8,0x88,0x88,0xE8,0x08,0x10,0x00,0x20,0x3F,0x20,0x20,0x23,0x20,0x18,0x00,//E37
//  283   0x08,0xF8,0x88,0x88,0xE8,0x08,0x10,0x00,0x20,0x3F,0x20,0x00,0x03,0x00,0x00,0x00,//F38
//  284   0xC0,0x30,0x08,0x08,0x08,0x38,0x00,0x00,0x07,0x18,0x20,0x20,0x22,0x1E,0x02,0x00,//G39
//  285   0x08,0xF8,0x08,0x00,0x00,0x08,0xF8,0x08,0x20,0x3F,0x21,0x01,0x01,0x21,0x3F,0x20,//H40
//  286   0x00,0x08,0x08,0xF8,0x08,0x08,0x00,0x00,0x00,0x20,0x20,0x3F,0x20,0x20,0x00,0x00,//I41
//  287   0x00,0x00,0x08,0x08,0xF8,0x08,0x08,0x00,0xC0,0x80,0x80,0x80,0x7F,0x00,0x00,0x00,//J42
//  288   0x08,0xF8,0x88,0xC0,0x28,0x18,0x08,0x00,0x20,0x3F,0x20,0x01,0x26,0x38,0x20,0x00,//K43
//  289   0x08,0xF8,0x08,0x00,0x00,0x00,0x00,0x00,0x20,0x3F,0x20,0x20,0x20,0x20,0x30,0x00,//L44
//  290   0x08,0xF8,0xF8,0x00,0xF8,0xF8,0x08,0x00,0x20,0x3F,0x00,0x3F,0x00,0x3F,0x20,0x00,//M45
//  291   0x08,0xF8,0x30,0xC0,0x00,0x08,0xF8,0x08,0x20,0x3F,0x20,0x00,0x07,0x18,0x3F,0x00,//N46
//  292   0xE0,0x10,0x08,0x08,0x08,0x10,0xE0,0x00,0x0F,0x10,0x20,0x20,0x20,0x10,0x0F,0x00,//O47
//  293   0x08,0xF8,0x08,0x08,0x08,0x08,0xF0,0x00,0x20,0x3F,0x21,0x01,0x01,0x01,0x00,0x00,//P48
//  294   0xE0,0x10,0x08,0x08,0x08,0x10,0xE0,0x00,0x0F,0x18,0x24,0x24,0x38,0x50,0x4F,0x00,//Q49
//  295   0x08,0xF8,0x88,0x88,0x88,0x88,0x70,0x00,0x20,0x3F,0x20,0x00,0x03,0x0C,0x30,0x20,//R50
//  296   0x00,0x70,0x88,0x08,0x08,0x08,0x38,0x00,0x00,0x38,0x20,0x21,0x21,0x22,0x1C,0x00,//S51
//  297   0x18,0x08,0x08,0xF8,0x08,0x08,0x18,0x00,0x00,0x00,0x20,0x3F,0x20,0x00,0x00,0x00,//T52
//  298   0x08,0xF8,0x08,0x00,0x00,0x08,0xF8,0x08,0x00,0x1F,0x20,0x20,0x20,0x20,0x1F,0x00,//U53
//  299   0x08,0x78,0x88,0x00,0x00,0xC8,0x38,0x08,0x00,0x00,0x07,0x38,0x0E,0x01,0x00,0x00,//V54
//  300   0xF8,0x08,0x00,0xF8,0x00,0x08,0xF8,0x00,0x03,0x3C,0x07,0x00,0x07,0x3C,0x03,0x00,//W55
//  301   0x08,0x18,0x68,0x80,0x80,0x68,0x18,0x08,0x20,0x30,0x2C,0x03,0x03,0x2C,0x30,0x20,//X56
//  302   0x08,0x38,0xC8,0x00,0xC8,0x38,0x08,0x00,0x00,0x00,0x20,0x3F,0x20,0x00,0x00,0x00,//Y57
//  303   0x10,0x08,0x08,0x08,0xC8,0x38,0x08,0x00,0x20,0x38,0x26,0x21,0x20,0x20,0x18,0x00,//Z58
//  304   0x00,0x00,0x00,0xFE,0x02,0x02,0x02,0x00,0x00,0x00,0x00,0x7F,0x40,0x40,0x40,0x00,//[59
//  305   0x00,0x0C,0x30,0xC0,0x00,0x00,0x00,0x00,0x00,0x00,0x00,0x01,0x06,0x38,0xC0,0x00,//\60
//  306   0x00,0x02,0x02,0x02,0xFE,0x00,0x00,0x00,0x00,0x40,0x40,0x40,0x7F,0x00,0x00,0x00,//]61
//  307   0x00,0x00,0x04,0x02,0x02,0x02,0x04,0x00,0x00,0x00,0x00,0x00,0x00,0x00,0x00,0x00,//^62
//  308   0x00,0x00,0x00,0x00,0x00,0x00,0x00,0x00,0x80,0x80,0x80,0x80,0x80,0x80,0x80,0x80,//_63
//  309   0x00,0x02,0x02,0x04,0x00,0x00,0x00,0x00,0x00,0x00,0x00,0x00,0x00,0x00,0x00,0x00,//`64
//  310   0x00,0x00,0x80,0x80,0x80,0x80,0x00,0x00,0x00,0x19,0x24,0x22,0x22,0x22,0x3F,0x20,//a65
//  311   0x08,0xF8,0x00,0x80,0x80,0x00,0x00,0x00,0x00,0x3F,0x11,0x20,0x20,0x11,0x0E,0x00,//b66
//  312   0x00,0x00,0x00,0x80,0x80,0x80,0x00,0x00,0x00,0x0E,0x11,0x20,0x20,0x20,0x11,0x00,//c67
//  313   0x00,0x00,0x00,0x80,0x80,0x88,0xF8,0x00,0x00,0x0E,0x11,0x20,0x20,0x10,0x3F,0x20,//d68
//  314   0x00,0x00,0x80,0x80,0x80,0x80,0x00,0x00,0x00,0x1F,0x22,0x22,0x22,0x22,0x13,0x00,//e69
//  315   0x00,0x80,0x80,0xF0,0x88,0x88,0x88,0x18,0x00,0x20,0x20,0x3F,0x20,0x20,0x00,0x00,//f70
//  316   0x00,0x00,0x80,0x80,0x80,0x80,0x80,0x00,0x00,0x6B,0x94,0x94,0x94,0x93,0x60,0x00,//g71
//  317   0x08,0xF8,0x00,0x80,0x80,0x80,0x00,0x00,0x20,0x3F,0x21,0x00,0x00,0x20,0x3F,0x20,//h72
//  318   0x00,0x80,0x98,0x98,0x00,0x00,0x00,0x00,0x00,0x20,0x20,0x3F,0x20,0x20,0x00,0x00,//i73
//  319   0x00,0x00,0x00,0x80,0x98,0x98,0x00,0x00,0x00,0xC0,0x80,0x80,0x80,0x7F,0x00,0x00,//j74
//  320   0x08,0xF8,0x00,0x00,0x80,0x80,0x80,0x00,0x20,0x3F,0x24,0x02,0x2D,0x30,0x20,0x00,//k75
//  321   0x00,0x08,0x08,0xF8,0x00,0x00,0x00,0x00,0x00,0x20,0x20,0x3F,0x20,0x20,0x00,0x00,//l76
//  322   0x80,0x80,0x80,0x80,0x80,0x80,0x80,0x00,0x20,0x3F,0x20,0x00,0x3F,0x20,0x00,0x3F,//m77
//  323   0x80,0x80,0x00,0x80,0x80,0x80,0x00,0x00,0x20,0x3F,0x21,0x00,0x00,0x20,0x3F,0x20,//n78
//  324   0x00,0x00,0x80,0x80,0x80,0x80,0x00,0x00,0x00,0x1F,0x20,0x20,0x20,0x20,0x1F,0x00,//o79
//  325   0x80,0x80,0x00,0x80,0x80,0x00,0x00,0x00,0x80,0xFF,0xA1,0x20,0x20,0x11,0x0E,0x00,//p80
//  326   0x00,0x00,0x00,0x80,0x80,0x80,0x80,0x00,0x00,0x0E,0x11,0x20,0x20,0xA0,0xFF,0x80,//q81
//  327   0x80,0x80,0x80,0x00,0x80,0x80,0x80,0x00,0x20,0x20,0x3F,0x21,0x20,0x00,0x01,0x00,//r82
//  328   0x00,0x00,0x80,0x80,0x80,0x80,0x80,0x00,0x00,0x33,0x24,0x24,0x24,0x24,0x19,0x00,//s83
//  329   0x00,0x80,0x80,0xE0,0x80,0x80,0x00,0x00,0x00,0x00,0x00,0x1F,0x20,0x20,0x00,0x00,//t84
//  330   0x80,0x80,0x00,0x00,0x00,0x80,0x80,0x00,0x00,0x1F,0x20,0x20,0x20,0x10,0x3F,0x20,//u85
//  331   0x80,0x80,0x80,0x00,0x00,0x80,0x80,0x80,0x00,0x01,0x0E,0x30,0x08,0x06,0x01,0x00,//v86
//  332   0x80,0x80,0x00,0x80,0x00,0x80,0x80,0x80,0x0F,0x30,0x0C,0x03,0x0C,0x30,0x0F,0x00,//w87
//  333   0x00,0x80,0x80,0x00,0x80,0x80,0x80,0x00,0x00,0x20,0x31,0x2E,0x0E,0x31,0x20,0x00,//x88
//  334   0x80,0x80,0x80,0x00,0x00,0x80,0x80,0x80,0x80,0x81,0x8E,0x70,0x18,0x06,0x01,0x00,//y89
//  335   0x00,0x80,0x80,0x80,0x80,0x80,0x80,0x00,0x00,0x21,0x30,0x2C,0x22,0x21,0x30,0x00,//z90
//  336   0x00,0x00,0x00,0x00,0x80,0x7C,0x02,0x02,0x00,0x00,0x00,0x00,0x00,0x3F,0x40,0x40,//{91
//  337   0x00,0x00,0x00,0x00,0xFF,0x00,0x00,0x00,0x00,0x00,0x00,0x00,0xFF,0x00,0x00,0x00,//|92
//  338   0x00,0x02,0x02,0x7C,0x80,0x00,0x00,0x00,0x00,0x40,0x40,0x3F,0x00,0x00,0x00,0x00,//}93
//  339   0x00,0x06,0x01,0x01,0x02,0x02,0x04,0x04,0x00,0x00,0x00,0x00,0x00,0x00,0x00,0x00,//~94
//  340 
//  341 };
//  342 //数据水平，字节垂直

        SECTION `.data`:DATA:REORDER:NOROOT(2)
//  343 byte longqiu96x64[768] = {
longqiu96x64:
        DATA
        DC8 0, 0, 0, 0, 0, 0, 0, 0, 0, 0, 0, 0, 0, 0, 0, 0, 0, 0, 128, 128, 192
        DC8 192, 192, 96, 96, 96, 48, 48, 48, 56, 24, 24, 24, 24, 12, 12, 12
        DC8 12, 12, 14, 14, 14, 6, 6, 6, 6, 6, 6, 6, 6, 6, 6, 6, 6, 6, 14, 14
        DC8 12, 12, 12, 12, 12, 28, 24, 24, 24, 24, 48, 48, 48, 112, 96, 96
        DC8 224, 192, 192, 128, 128, 0, 0, 0, 0, 0, 0, 0, 0, 0, 0, 0, 0, 0, 0
        DC8 0, 0, 0, 0, 0, 0, 0, 0, 0, 0, 0, 128, 192, 224, 112, 48, 56, 28, 12
        DC8 6, 7, 3, 3, 1, 1, 0, 0, 0, 0, 0, 0, 0, 0, 0, 0, 0, 0, 0, 0, 0, 0, 0
        DC8 128, 128, 128, 0, 0, 0, 0, 0, 128, 128, 240, 248, 248, 240, 128, 0
        DC8 0, 128, 224, 240, 248, 252, 60, 28, 12, 12, 28, 252, 248, 240, 224
        DC8 128, 0, 0, 0, 192, 192, 193, 1, 3, 3, 7, 6, 14, 12, 24, 56, 112, 96
        DC8 192, 128, 128, 0, 0, 0, 0, 0, 0, 0, 0, 192, 240, 120, 30, 7, 51, 49
        DC8 56, 120, 252, 254, 246, 192, 128, 0, 0, 0, 0, 192, 192, 128, 0, 248
        DC8 252, 222, 14, 15, 30, 190, 252, 240, 6, 255, 255, 255, 255, 3, 7
        DC8 255, 255, 254, 128, 30, 63, 255, 255, 249, 249, 255, 255, 127, 31
        DC8 14, 127, 255, 255, 255, 193, 128, 206, 206, 198, 192, 255, 255, 255
        DC8 255, 63, 128, 252, 252, 253, 125, 1, 192, 248, 248, 240, 112, 0
        DC8 192, 128, 128, 128, 0, 0, 1, 7, 14, 60, 248, 224, 128, 0, 0, 254
        DC8 255, 3, 0, 0, 0, 0, 0, 0, 0, 1, 3, 15, 31, 127, 254, 252, 240, 240
        DC8 240, 127, 127, 62, 16, 3, 3, 15, 31, 31, 15, 15, 3, 4, 7, 7, 7, 7
        DC8 6, 0, 7, 7, 7, 15, 30, 63, 127, 127, 127, 121, 115, 63, 63, 31, 14
        DC8 0, 1, 3, 3, 7, 7, 6, 14, 15, 15, 31, 63, 61, 8, 12, 31, 31, 31, 25
        DC8 60, 127, 127, 127, 243, 240, 252, 254, 63, 31, 7, 1, 0, 0, 0, 0, 0
        DC8 0, 0, 207, 255, 112, 0, 3, 31, 126, 240, 192, 0, 0, 0, 0, 0, 0, 0
        DC8 0, 0, 0, 3, 3, 1, 1, 0, 0, 0, 0, 192, 192, 64, 64, 64, 64, 248, 120
        DC8 64, 192, 64, 88, 88, 64, 64, 64, 0, 0, 0, 0, 0, 128, 128, 128, 0, 0
        DC8 0, 0, 0, 0, 96, 240, 224, 32, 32, 32, 32, 48, 48, 56, 24, 16, 0, 0
        DC8 0, 0, 0, 0, 0, 0, 0, 0, 0, 0, 0, 1, 1, 1, 0, 0, 0, 0, 0, 0, 0, 0
        DC8 128, 224, 248, 63, 15, 0, 0, 0, 0, 0, 0, 3, 7, 14, 28, 56, 48, 96
        DC8 224, 192, 128, 0, 0, 0, 0, 0, 0, 0, 64, 96, 96, 112, 48, 24, 12, 7
        DC8 17, 8, 63, 125, 102, 231, 227, 192, 192, 192, 224, 96, 0, 0, 0, 3
        DC8 3, 3, 0, 0, 96, 96, 96, 96, 96, 127, 127, 97, 97, 97, 97, 127, 127
        DC8 97, 97, 225, 224, 224, 192, 192, 0, 0, 0, 0, 0, 0, 0, 0, 0, 0, 0
        DC8 128, 192, 192, 224, 112, 56, 24, 12, 7, 3, 1, 0, 0, 0, 0, 0, 0, 0
        DC8 0, 0, 0, 0, 0, 0, 0, 0, 0, 0, 1, 1, 3, 3, 6, 6, 12, 12, 24, 24, 56
        DC8 48, 48, 112, 96, 96, 224, 192, 192, 192, 192, 192, 128, 128, 128
        DC8 129, 128, 128, 128, 128, 128, 0, 0, 0, 0, 0, 0, 0, 0, 128, 128, 128
        DC8 128, 128, 128, 128, 128, 128, 128, 192, 192, 192, 192, 192, 96, 96
        DC8 96, 48, 48, 48, 24, 24, 28, 12, 14, 6, 7, 3, 3, 1, 0, 0, 0, 0, 0, 0
        DC8 0, 0, 0, 0, 0, 0, 0, 0, 0, 0, 0, 0, 0, 0, 0, 0, 0, 0, 0, 0, 0, 0, 0
        DC8 0, 0, 0, 0, 0, 0, 0, 0, 0, 0, 0, 0, 0, 0, 0, 0, 0, 0, 1, 1, 1, 1, 1
        DC8 1, 1, 3, 3, 3, 3, 3, 3, 3, 3, 3, 3, 3, 3, 3, 3, 1, 1, 1, 1, 1, 1, 1
        DC8 0, 0, 0, 0, 0, 0, 0, 0, 0, 0, 0, 0, 0, 0, 0, 0, 0, 0, 0, 0, 0, 0, 0
        DC8 0, 0, 0, 0, 0, 0, 0, 0, 0, 0, 0
//  344 /* 
//  345   0X00,0X00,0X00,0X00,0X00,0X00,0X00,0X00,0X00,0X00,0X00,0X00,0X00,0X00,0X00,0X00,
//  346   0X00,0X00,0X00,0X00,0X00,0X00,0X00,0X00,0X00,0X00,0X80,0X80,0X80,0XC0,0XC0,0XC0,
//  347   0XC0,0XC0,0X60,0X60,0X60,0X60,0X60,0X70,0X70,0X70,0X30,0X30,0X30,0X30,0X30,0X30,
//  348   0X30,0X30,0X30,0X30,0X30,0X30,0X30,0X70,0X70,0X60,0X60,0X60,0X60,0X60,0XE0,0XC0,
//  349   0XC0,0XC0,0XC0,0X80,0X80,0X80,0X80,0X00,0X00,0X00,0X00,0X00,0X00,0X00,0X00,0X00,
//  350   0X00,0X00,0X00,0X00,0X00,0X00,0X00,0X00,0X00,0X00,0X00,0X00,0X00,0X00,0X00,0X00,
//  351   0X00,0X00,0X00,0X00,0X00,0X00,0X00,0X00,0X00,0X00,0X80,0X80,0XC0,0XE0,0X60,0X30,
//  352   0X38,0X18,0X1C,0X0C,0X0E,0X06,0X06,0X03,0X03,0X03,0X01,0X01,0X01,0X01,0X00,0X00,
//  353   0X00,0X00,0X00,0X00,0X00,0X00,0X00,0X00,0X00,0X00,0X00,0X00,0X00,0X00,0X00,0X00,
//  354   0X80,0XC0,0XC0,0X80,0X00,0X00,0X00,0X00,0X00,0X80,0XC0,0XE0,0XE0,0XE0,0X60,0X60,
//  355   0XE0,0XE0,0XC0,0X81,0X01,0X01,0X03,0X03,0X03,0X07,0X06,0X0E,0X0C,0X1C,0X18,0X38,
//  356   0X30,0X70,0X60,0XC0,0XC0,0X80,0X00,0X00,0X00,0X00,0X00,0X00,0X00,0X00,0X00,0X00,
//  357   0X00,0X00,0X00,0X80,0XC0,0XF0,0X38,0X9C,0X8E,0XC7,0XC3,0XE1,0XF1,0XB0,0X00,0X00,
//  358   0X00,0X00,0X00,0X00,0X00,0X00,0X00,0X00,0XC0,0XE0,0XF0,0X70,0X78,0XF0,0XF0,0XE0,
//  359   0X80,0X30,0XF8,0XF8,0XF8,0XF8,0X1C,0X3C,0XFC,0XF8,0XF0,0X00,0XF0,0XF8,0XFC,0XFC,
//  360   0XCF,0XCF,0XFF,0XFF,0XFC,0XF8,0X70,0XFC,0XFF,0XFF,0XFF,0X0F,0X01,0X70,0X70,0X30,
//  361   0X00,0XFF,0XFF,0XFF,0XFF,0XFC,0X00,0XE0,0XE0,0XEE,0XEE,0X0E,0X00,0XC0,0XC0,0X80,
//  362   0X80,0X00,0X00,0X00,0X01,0X03,0X03,0X06,0X0C,0X3C,0X70,0XE0,0XC0,0X00,0X00,0X00,
//  363   0X00,0XF0,0XFE,0X1F,0X03,0X00,0X00,0X01,0X01,0X01,0X03,0X0F,0X1F,0X7F,0XFE,0XFC,
//  364   0XF0,0XE0,0X80,0X80,0X86,0XFE,0XFC,0XF0,0X87,0X1F,0X1E,0X78,0XF8,0XF8,0X7D,0X7F,
//  365   0X1F,0X20,0X3F,0X3F,0X3F,0X3F,0X30,0X00,0X3F,0X3F,0X3F,0X7C,0XF0,0XF9,0XFF,0XFF,
//  366   0XFF,0XCF,0X9F,0XFF,0XFB,0XF8,0X70,0X03,0X0F,0X1F,0X1F,0X3E,0X3C,0X36,0X76,0X7E,
//  367   0X7E,0XFF,0XFF,0XEF,0X47,0X61,0XFC,0XFF,0XFF,0XCF,0XE3,0XF8,0XFE,0XFF,0X9F,0X87,
//  368   0XE3,0XF0,0XFE,0XFC,0X3C,0X0C,0X00,0X00,0X00,0X00,0X00,0X01,0X07,0X7F,0XFC,0X80,
//  369   0X00,0X1F,0XFF,0XF0,0X80,0X00,0X00,0X00,0X00,0X00,0X00,0X00,0X00,0X00,0X00,0X03,
//  370   0X1F,0X1F,0X0F,0X0F,0X07,0X03,0X03,0X01,0X00,0X00,0X00,0X00,0X00,0X00,0XC0,0XC0,
//  371   0X00,0X00,0X00,0XC0,0XC0,0X00,0X00,0X00,0X00,0X00,0X00,0X00,0X00,0X01,0X03,0X03,
//  372   0X03,0X03,0X03,0X01,0X01,0X00,0X00,0X80,0X00,0X00,0X00,0X00,0X00,0X80,0X80,0XC0,
//  373   0XC0,0X80,0X01,0X01,0X00,0X00,0X00,0X00,0X00,0X00,0X01,0X03,0X03,0X03,0X07,0X0F,
//  374   0X0F,0X0F,0X01,0X00,0X00,0X00,0X00,0X00,0X00,0X00,0X00,0X00,0XC0,0XFE,0X7F,0X03,
//  375   0X00,0X00,0X00,0X03,0X07,0X1E,0X38,0X70,0XE0,0XC0,0X80,0X00,0X00,0X00,0X00,0X00,
//  376   0X00,0X00,0X00,0X00,0X00,0X00,0X00,0X00,0X06,0X86,0X82,0XC2,0X62,0X3A,0X8F,0X43,
//  377   0XFA,0XEE,0X32,0X3A,0X1A,0X02,0X02,0X02,0X00,0X00,0X00,0X00,0X00,0X1C,0X1C,0X1C,
//  378   0X00,0X00,0X00,0X00,0X00,0X00,0X03,0XFF,0XFF,0X09,0X09,0X09,0X09,0XF9,0XF9,0X09,
//  379   0X08,0X08,0X00,0X00,0X00,0X00,0X00,0X00,0X00,0X00,0X00,0X00,0X00,0X00,0X00,0X00,
//  380   0X00,0X00,0X00,0X00,0X00,0X80,0XC0,0XC0,0X60,0X38,0X1C,0X0F,0X07,0X01,0X00,0X00,
//  381   0X00,0X00,0X00,0X00,0X00,0X00,0X00,0X00,0X00,0X01,0X01,0X03,0X07,0X0E,0X0C,0X18,
//  382   0X18,0X30,0X30,0X60,0X60,0XC0,0XC2,0XC3,0X83,0X83,0X81,0X00,0X00,0X00,0X00,0X00,
//  383   0X01,0X03,0X03,0X07,0X07,0X06,0X0E,0X06,0X07,0X03,0X00,0X00,0X00,0X00,0X00,0X00,
//  384   0X00,0X00,0X03,0X03,0X03,0X03,0X03,0X03,0X03,0X03,0X03,0X03,0X03,0X03,0X03,0X03,
//  385   0X03,0X07,0X07,0X07,0X06,0X06,0X80,0X80,0X80,0XC0,0XC0,0XE0,0X60,0X70,0X30,0X38,
//  386   0X18,0X1C,0X0E,0X06,0X07,0X03,0X01,0X00,0X00,0X00,0X00,0X00,0X00,0X00,0X00,0X00,
//  387   0X00,0X00,0X00,0X00,0X00,0X00,0X00,0X00,0X00,0X00,0X00,0X00,0X00,0X00,0X00,0X00,
//  388   0X00,0X00,0X00,0X00,0X00,0X00,0X00,0X01,0X01,0X01,0X03,0X03,0X03,0X07,0X06,0X06,
//  389   0X06,0X06,0X0E,0X0C,0X0C,0X0C,0X0C,0X0C,0X0C,0X1C,0X1C,0X1C,0X18,0X18,0X18,0X18,
//  390   0X18,0X18,0X18,0X18,0X1C,0X1C,0X1C,0X0C,0X0C,0X0C,0X0C,0X0C,0X0C,0X0C,0X06,0X06,
//  391   0X06,0X06,0X06,0X03,0X03,0X03,0X01,0X01,0X01,0X00,0X00,0X00,0X00,0X00,0X00,0X00,
//  392   0X00,0X00,0X00,0X00,0X00,0X00,0X00,0X00,0X00,0X00,0X00,0X00,0X00,0X00,0X00,0X00,
//  393 */
//  394 0X00,0X00,0X00,0X00,0X00,0X00,0X00,0X00,0X00,0X00,0X00,0X00,0X00,0X00,0X00,0X00,
//  395 0X00,0X00,0X80,0X80,0XC0,0XC0,0XC0,0X60,0X60,0X60,0X30,0X30,0X30,0X38,0X18,0X18,
//  396 0X18,0X18,0X0C,0X0C,0X0C,0X0C,0X0C,0X0E,0X0E,0X0E,0X06,0X06,0X06,0X06,0X06,0X06,
//  397 0X06,0X06,0X06,0X06,0X06,0X06,0X06,0X0E,0X0E,0X0C,0X0C,0X0C,0X0C,0X0C,0X1C,0X18,
//  398 0X18,0X18,0X18,0X30,0X30,0X30,0X70,0X60,0X60,0XE0,0XC0,0XC0,0X80,0X80,0X00,0X00,
//  399 0X00,0X00,0X00,0X00,0X00,0X00,0X00,0X00,0X00,0X00,0X00,0X00,0X00,0X00,0X00,0X00,
//  400 0X00,0X00,0X00,0X00,0X00,0X00,0X00,0X80,0XC0,0XE0,0X70,0X30,0X38,0X1C,0X0C,0X06,
//  401 0X07,0X03,0X03,0X01,0X01,0X00,0X00,0X00,0X00,0X00,0X00,0X00,0X00,0X00,0X00,0X00,
//  402 0X00,0X00,0X00,0X00,0X00,0X00,0X80,0X80,0X80,0X00,0X00,0X00,0X00,0X00,0X80,0X80,
//  403 0XF0,0XF8,0XF8,0XF0,0X80,0X00,0X00,0X80,0XE0,0XF0,0XF8,0XFC,0X3C,0X1C,0X0C,0X0C,
//  404 0X1C,0XFC,0XF8,0XF0,0XE0,0X80,0X00,0X00,0X00,0XC0,0XC0,0XC1,0X01,0X03,0X03,0X07,
//  405 0X06,0X0E,0X0C,0X18,0X38,0X70,0X60,0XC0,0X80,0X80,0X00,0X00,0X00,0X00,0X00,0X00,
//  406 0X00,0X00,0XC0,0XF0,0X78,0X1E,0X07,0X33,0X31,0X38,0X78,0XFC,0XFE,0XF6,0XC0,0X80,
//  407 0X00,0X00,0X00,0X00,0XC0,0XC0,0X80,0X00,0XF8,0XFC,0XDE,0X0E,0X0F,0X1E,0XBE,0XFC,
//  408 0XF0,0X06,0XFF,0XFF,0XFF,0XFF,0X03,0X07,0XFF,0XFF,0XFE,0X80,0X1E,0X3F,0XFF,0XFF,
//  409 0XF9,0XF9,0XFF,0XFF,0X7F,0X1F,0X0E,0X7F,0XFF,0XFF,0XFF,0XC1,0X80,0XCE,0XCE,0XC6,
//  410 0XC0,0XFF,0XFF,0XFF,0XFF,0X3F,0X80,0XFC,0XFC,0XFD,0X7D,0X01,0XC0,0XF8,0XF8,0XF0,
//  411 0X70,0X00,0XC0,0X80,0X80,0X80,0X00,0X00,0X01,0X07,0X0E,0X3C,0XF8,0XE0,0X80,0X00,
//  412 0X00,0XFE,0XFF,0X03,0X00,0X00,0X00,0X00,0X00,0X00,0X00,0X01,0X03,0X0F,0X1F,0X7F,
//  413 0XFE,0XFC,0XF0,0XF0,0XF0,0X7F,0X7F,0X3E,0X10,0X03,0X03,0X0F,0X1F,0X1F,0X0F,0X0F,
//  414 0X03,0X04,0X07,0X07,0X07,0X07,0X06,0X00,0X07,0X07,0X07,0X0F,0X1E,0X3F,0X7F,0X7F,
//  415 0X7F,0X79,0X73,0X3F,0X3F,0X1F,0X0E,0X00,0X01,0X03,0X03,0X07,0X07,0X06,0X0E,0X0F,
//  416 0X0F,0X1F,0X3F,0X3D,0X08,0X0C,0X1F,0X1F,0X1F,0X19,0X3C,0X7F,0X7F,0X7F,0XF3,0XF0,
//  417 0XFC,0XFE,0X3F,0X1F,0X07,0X01,0X00,0X00,0X00,0X00,0X00,0X00,0X00,0XCF,0XFF,0X70,
//  418 0X00,0X03,0X1F,0X7E,0XF0,0XC0,0X00,0X00,0X00,0X00,0X00,0X00,0X00,0X00,0X00,0X00,
//  419 0X03,0X03,0X01,0X01,0X00,0X00,0X00,0X00,0XC0,0XC0,0X40,0X40,0X40,0X40,0XF8,0X78,
//  420 0X40,0XC0,0X40,0X58,0X58,0X40,0X40,0X40,0X00,0X00,0X00,0X00,0X00,0X80,0X80,0X80,
//  421 0X00,0X00,0X00,0X00,0X00,0X00,0X60,0XF0,0XE0,0X20,0X20,0X20,0X20,0X30,0X30,0X38,
//  422 0X18,0X10,0X00,0X00,0X00,0X00,0X00,0X00,0X00,0X00,0X00,0X00,0X00,0X00,0X00,0X01,
//  423 0X01,0X01,0X00,0X00,0X00,0X00,0X00,0X00,0X00,0X00,0X80,0XE0,0XF8,0X3F,0X0F,0X00,
//  424 0X00,0X00,0X00,0X00,0X00,0X03,0X07,0X0E,0X1C,0X38,0X30,0X60,0XE0,0XC0,0X80,0X00,
//  425 0X00,0X00,0X00,0X00,0X00,0X00,0X40,0X60,0X60,0X70,0X30,0X18,0X0C,0X07,0X11,0X08,
//  426 0X3F,0X7D,0X66,0XE7,0XE3,0XC0,0XC0,0XC0,0XE0,0X60,0X00,0X00,0X00,0X03,0X03,0X03,
//  427 0X00,0X00,0X60,0X60,0X60,0X60,0X60,0X7F,0X7F,0X61,0X61,0X61,0X61,0X7F,0X7F,0X61,
//  428 0X61,0XE1,0XE0,0XE0,0XC0,0XC0,0X00,0X00,0X00,0X00,0X00,0X00,0X00,0X00,0X00,0X00,
//  429 0X00,0X80,0XC0,0XC0,0XE0,0X70,0X38,0X18,0X0C,0X07,0X03,0X01,0X00,0X00,0X00,0X00,
//  430 0X00,0X00,0X00,0X00,0X00,0X00,0X00,0X00,0X00,0X00,0X00,0X00,0X00,0X01,0X01,0X03,
//  431 0X03,0X06,0X06,0X0C,0X0C,0X18,0X18,0X38,0X30,0X30,0X70,0X60,0X60,0XE0,0XC0,0XC0,
//  432 0XC0,0XC0,0XC0,0X80,0X80,0X80,0X81,0X80,0X80,0X80,0X80,0X80,0X00,0X00,0X00,0X00,
//  433 0X00,0X00,0X00,0X00,0X80,0X80,0X80,0X80,0X80,0X80,0X80,0X80,0X80,0X80,0XC0,0XC0,
//  434 0XC0,0XC0,0XC0,0X60,0X60,0X60,0X30,0X30,0X30,0X18,0X18,0X1C,0X0C,0X0E,0X06,0X07,
//  435 0X03,0X03,0X01,0X00,0X00,0X00,0X00,0X00,0X00,0X00,0X00,0X00,0X00,0X00,0X00,0X00,
//  436 0X00,0X00,0X00,0X00,0X00,0X00,0X00,0X00,0X00,0X00,0X00,0X00,0X00,0X00,0X00,0X00,
//  437 0X00,0X00,0X00,0X00,0X00,0X00,0X00,0X00,0X00,0X00,0X00,0X00,0X00,0X00,0X00,0X00,
//  438 0X00,0X00,0X01,0X01,0X01,0X01,0X01,0X01,0X01,0X03,0X03,0X03,0X03,0X03,0X03,0X03,
//  439 0X03,0X03,0X03,0X03,0X03,0X03,0X03,0X01,0X01,0X01,0X01,0X01,0X01,0X01,0X00,0X00,
//  440 0X00,0X00,0X00,0X00,0X00,0X00,0X00,0X00,0X00,0X00,0X00,0X00,0X00,0X00,0X00,0X00,
//  441 0X00,0X00,0X00,0X00,0X00,0X00,0X00,0X00,0X00,0X00,0X00,0X00,0X00,0X00,0X00,0X00,
//  442 
//  443 };
//  444 const byte LIBLOGO60x58[480] = { 
//  445   0X00,0X00,0X00,0X00,0X00,0X00,0X00,0X00,0X00,0X00,0X00,0X00,0X00,0X00,0X00,0X00,
//  446   0X00,0X00,0X00,0X00,0X00,0X00,0X00,0X00,0X00,0X00,0X00,0X00,0X00,0X00,0X00,0X00,
//  447   0X00,0X00,0X00,0X00,0X00,0X00,0X00,0X00,0X00,0X00,0X00,0X00,0X00,0X00,0X00,0X00,
//  448   0X00,0X00,0X00,0X00,0X00,0X00,0X00,0X00,0X00,0X00,0X00,0X00,0X00,0X00,0X00,0X00,
//  449   0X00,0X00,0XC0,0XE0,0XF8,0XFC,0XFE,0X7F,0X3F,0X0F,0X0F,0X07,0X07,0X07,0X87,0XC7,
//  450   0XC7,0XC7,0XE7,0XEF,0XFF,0XFF,0XFF,0XEF,0XE7,0XE7,0XE7,0XE7,0XE7,0XEF,0XFF,0XFF,
//  451   0XFF,0XEF,0XE7,0XE7,0XE7,0XE7,0XE7,0XF7,0X07,0X0F,0X3F,0X7F,0XFF,0XFE,0XFC,0XF0,
//  452   0XC0,0X00,0X00,0X00,0X00,0X00,0X00,0X00,0X00,0X00,0X00,0XD8,0XDC,0XDF,0XDF,0XDF,
//  453   0XDF,0XD7,0X01,0X00,0X00,0X00,0X00,0X00,0X00,0X3E,0X7F,0XFF,0XFF,0XE3,0XE1,0XE1,
//  454   0XFF,0XFF,0XFF,0XE0,0XE0,0XE0,0XE0,0XE0,0XE0,0XE0,0XFF,0XFF,0XFF,0XE0,0XE0,0XE0,
//  455   0XE0,0XC1,0X83,0X07,0X00,0X00,0X00,0X00,0X01,0XD7,0XDF,0XDF,0XDF,0XDF,0XDC,0XD8,
//  456   0X00,0X00,0X00,0X00,0X00,0X00,0X00,0X01,0X03,0X0F,0X1F,0X3F,0XFF,0XFF,0XFE,0XF8,
//  457   0XF0,0XE0,0XC0,0X80,0X00,0X00,0XF8,0XF0,0XE0,0XC0,0XC0,0XC0,0XFF,0XFF,0XFF,0XC0,
//  458   0XC0,0XC0,0XC0,0XC0,0XC0,0XC0,0XFF,0XFF,0XFF,0XC0,0XE0,0XE1,0XF3,0XFF,0X7F,0X3F,
//  459   0X00,0XC0,0XE0,0XF8,0XFE,0XFF,0XFF,0XFF,0X3F,0X1F,0X07,0X01,0X00,0X00,0X00,0X00,
//  460   0X00,0X00,0X00,0X00,0X00,0X00,0X00,0X00,0X00,0X00,0X01,0X07,0X0F,0X3F,0X7F,0XFF,
//  461   0XFE,0XFC,0XF9,0XF3,0XC1,0X81,0X01,0X01,0XFF,0XFF,0XFF,0X01,0X01,0X01,0X01,0X01,
//  462   0X01,0X01,0XFF,0XFF,0XFF,0X03,0X01,0X81,0XC0,0XF0,0XFC,0XFE,0XFF,0XFF,0X7F,0X3F,
//  463   0X0F,0X07,0X03,0X00,0X00,0X00,0X00,0X00,0X00,0X00,0X00,0X00,0X00,0X00,0X00,0X00,
//  464   0X00,0X00,0X00,0X00,0X00,0X00,0X00,0X00,0X00,0X00,0X00,0X00,0X03,0X07,0X0F,0X3F,
//  465   0X7F,0XFF,0XFF,0XFF,0XFB,0XF3,0XE3,0XC3,0X03,0X03,0X03,0X03,0X03,0X83,0XC3,0XF3,
//  466   0XF3,0XFB,0XFF,0XFF,0XFF,0X7F,0X3F,0X0F,0X03,0X01,0X00,0X00,0X00,0X00,0X00,0X00,
//  467   0X00,0X00,0X00,0X00,0X00,0X00,0X00,0X00,0X00,0X00,0X00,0X00,0X00,0X00,0X00,0X00,
//  468   0X00,0X00,0X00,0X00,0X00,0X00,0X00,0X00,0X00,0X00,0X00,0X00,0X00,0X00,0X03,0X07,
//  469   0X07,0X1F,0X3F,0X7F,0XFF,0XFE,0XFC,0XFC,0XFE,0XFF,0XFF,0X7F,0X3F,0X0F,0X07,0X03,
//  470   0X00,0X00,0X00,0X00,0X00,0X00,0X00,0X00,0X00,0X00,0X00,0X00,0X00,0X00,0X00,0X00,
//  471   0X00,0X00,0X00,0X00,0X00,0X00,0X00,0X00,0X00,0X00,0X00,0X00,0X00,0X00,0X00,0X00,
//  472   0X00,0X00,0X00,0X00,0X00,0X00,0X00,0X00,0X00,0X00,0X00,0X00,0X00,0X00,0X00,0X00,
//  473   0X00,0X03,0X07,0X0F,0X0F,0X07,0X01,0X00,0X00,0X00,0X00,0X00,0X00,0X00,0X00,0X00,
//  474   0X00,0X00,0X00,0X00,0X00,0X00,0X00,0X00,0X00,0X00,0X00,0X00,0X00,0X00,0X00,0X00,
//  475 }; 

        SECTION `.text`:CODE:NOROOT(2)
        THUMB
//  476 void LCD_WrDat(byte data)
//  477 {
//  478 	byte i=8;
LCD_WrDat:
        MOVS     R1,#+8
//  479 	//LCD_CS=0;;
//  480 	GPIOA_PDOR |=  GPIO_PDOR_PDO(GPIO_PIN(17));;;;
        LDR.W    R2,??DataTable8  ;; 0x400ff000
        LDR      R2,[R2, #+0]
        ORRS     R2,R2,#0x20000
        LDR.W    R3,??DataTable8  ;; 0x400ff000
        STR      R2,[R3, #+0]
//  481         asm("nop"); 
        nop              
//  482       GPIOA_PDOR &= ~GPIO_PDOR_PDO(GPIO_PIN(14));;;;
        LDR.W    R2,??DataTable8  ;; 0x400ff000
        LDR      R2,[R2, #+0]
        BICS     R2,R2,#0x4000
        LDR.W    R3,??DataTable8  ;; 0x400ff000
        STR      R2,[R3, #+0]
//  483       asm("nop");    
        nop              
        B.N      ??LCD_WrDat_0
//  484   while(i--)
//  485   {
//  486     if(data&0x80){GPIOA_PDOR |=  GPIO_PDOR_PDO(GPIO_PIN(15));;;;}
//  487     else{GPIOA_PDOR &= ~GPIO_PDOR_PDO(GPIO_PIN(15));;;;}
??LCD_WrDat_1:
        LDR.W    R2,??DataTable8  ;; 0x400ff000
        LDR      R2,[R2, #+0]
        BICS     R2,R2,#0x8000
        LDR.W    R3,??DataTable8  ;; 0x400ff000
        STR      R2,[R3, #+0]
//  488     GPIOA_PDOR |=  GPIO_PDOR_PDO(GPIO_PIN(14)); 
??LCD_WrDat_2:
        LDR.W    R2,??DataTable8  ;; 0x400ff000
        LDR      R2,[R2, #+0]
        ORRS     R2,R2,#0x4000
        LDR.W    R3,??DataTable8  ;; 0x400ff000
        STR      R2,[R3, #+0]
//  489     asm("nop");;;;
        nop              
//  490 		//asm("nop");            
//  491     GPIOA_PDOR &= ~GPIO_PDOR_PDO(GPIO_PIN(14));;;;;    
        LDR.W    R2,??DataTable8  ;; 0x400ff000
        LDR      R2,[R2, #+0]
        BICS     R2,R2,#0x4000
        LDR.W    R3,??DataTable8  ;; 0x400ff000
        STR      R2,[R3, #+0]
//  492     data<<=1;    
        LSLS     R0,R0,#+1
??LCD_WrDat_0:
        MOVS     R2,R1
        SUBS     R1,R2,#+1
        UXTB     R2,R2            ;; ZeroExt  R2,R2,#+24,#+24
        CMP      R2,#+0
        BEQ.N    ??LCD_WrDat_3
        LSLS     R2,R0,#+24
        BPL.N    ??LCD_WrDat_1
        LDR.W    R2,??DataTable8  ;; 0x400ff000
        LDR      R2,[R2, #+0]
        ORRS     R2,R2,#0x8000
        LDR.W    R3,??DataTable8  ;; 0x400ff000
        STR      R2,[R3, #+0]
        B.N      ??LCD_WrDat_2
//  493   }
//  494 	//LCD_CS=1;
//  495 }
??LCD_WrDat_3:
        BX       LR               ;; return

        SECTION `.text`:CODE:NOROOT(2)
        THUMB
//  496 void LCD_WrCmd(byte cmd)
//  497 {
//  498 	byte i=8;
LCD_WrCmd:
        MOVS     R1,#+8
//  499 	
//  500 	//LCD_CS=0;;
//  501   GPIOA_PDOR &= ~GPIO_PDOR_PDO(GPIO_PIN(17));;;;;
        LDR.W    R2,??DataTable8  ;; 0x400ff000
        LDR      R2,[R2, #+0]
        BICS     R2,R2,#0x20000
        LDR.W    R3,??DataTable8  ;; 0x400ff000
        STR      R2,[R3, #+0]
//  502   GPIOA_PDOR &= ~GPIO_PDOR_PDO(GPIO_PIN(14));;;;;
        LDR.W    R2,??DataTable8  ;; 0x400ff000
        LDR      R2,[R2, #+0]
        BICS     R2,R2,#0x4000
        LDR.W    R3,??DataTable8  ;; 0x400ff000
        STR      R2,[R3, #+0]
        B.N      ??LCD_WrCmd_0
//  503   //asm("nop");   
//  504   while(i--)
//  505   {
//  506     if(cmd&0x80){GPIOA_PDOR |=  GPIO_PDOR_PDO(GPIO_PIN(15));;;;;}
//  507     else{GPIOA_PDOR &= ~GPIO_PDOR_PDO(GPIO_PIN(15));;;;;;}
??LCD_WrCmd_1:
        LDR.W    R2,??DataTable8  ;; 0x400ff000
        LDR      R2,[R2, #+0]
        BICS     R2,R2,#0x8000
        LDR.W    R3,??DataTable8  ;; 0x400ff000
        STR      R2,[R3, #+0]
//  508     GPIOA_PDOR |=  GPIO_PDOR_PDO(GPIO_PIN(14));;;;;
??LCD_WrCmd_2:
        LDR.W    R2,??DataTable8  ;; 0x400ff000
        LDR      R2,[R2, #+0]
        ORRS     R2,R2,#0x4000
        LDR.W    R3,??DataTable8  ;; 0x400ff000
        STR      R2,[R3, #+0]
//  509     asm("nop");;;;
        nop              
//  510 		//asm("nop");             
//  511     GPIOA_PDOR &= ~GPIO_PDOR_PDO(GPIO_PIN(14));;;;;    
        LDR.W    R2,??DataTable8  ;; 0x400ff000
        LDR      R2,[R2, #+0]
        BICS     R2,R2,#0x4000
        LDR.W    R3,??DataTable8  ;; 0x400ff000
        STR      R2,[R3, #+0]
//  512     cmd<<=1;;;;;   
        LSLS     R0,R0,#+1
??LCD_WrCmd_0:
        MOVS     R2,R1
        SUBS     R1,R2,#+1
        UXTB     R2,R2            ;; ZeroExt  R2,R2,#+24,#+24
        CMP      R2,#+0
        BEQ.N    ??LCD_WrCmd_3
        LSLS     R2,R0,#+24
        BPL.N    ??LCD_WrCmd_1
        LDR.W    R2,??DataTable8  ;; 0x400ff000
        LDR      R2,[R2, #+0]
        ORRS     R2,R2,#0x8000
        LDR.W    R3,??DataTable8  ;; 0x400ff000
        STR      R2,[R3, #+0]
        B.N      ??LCD_WrCmd_2
//  513   } 	
//  514 	//LCD_CS=1;
//  515 }
??LCD_WrCmd_3:
        BX       LR               ;; return

        SECTION `.text`:CODE:NOROOT(1)
        THUMB
//  516 void LCD_Set_Pos(byte x, byte y)
//  517 { 
LCD_Set_Pos:
        PUSH     {R4,LR}
        MOVS     R4,R0
//  518   LCD_WrCmd(0xb0+y);
        SUBS     R0,R1,#+80
        UXTB     R0,R0            ;; ZeroExt  R0,R0,#+24,#+24
        BL       LCD_WrCmd
//  519   LCD_WrCmd(((x&0xf0)>>4)|0x10);
        UXTB     R4,R4            ;; ZeroExt  R4,R4,#+24,#+24
        LSRS     R0,R4,#+4
        ORRS     R0,R0,#0x10
        UXTB     R0,R0            ;; ZeroExt  R0,R0,#+24,#+24
        BL       LCD_WrCmd
//  520   LCD_WrCmd((x&0x0f)|0x01); 
        ANDS     R0,R4,#0xF
        ORRS     R0,R0,#0x1
        UXTB     R0,R0            ;; ZeroExt  R0,R0,#+24,#+24
        BL       LCD_WrCmd
//  521 } 
        POP      {R4,PC}          ;; return

        SECTION `.text`:CODE:NOROOT(1)
        THUMB
//  522 void LCD_Fill(byte bmp_data)
//  523 {
LCD_Fill:
        PUSH     {R4-R6,LR}
        MOVS     R4,R0
//  524 	byte y,x;
//  525 	
//  526 	for(y=0;y<8;y++)
        MOVS     R5,#+0
        B.N      ??LCD_Fill_0
//  527 	{
//  528 		LCD_WrCmd(0xb0+y);
//  529 		LCD_WrCmd(0x01);
//  530 		LCD_WrCmd(0x10);
//  531 		for(x=0;x<X_WIDTH;x++)
//  532 			LCD_WrDat(bmp_data);
??LCD_Fill_1:
        MOVS     R0,R4
        UXTB     R0,R0            ;; ZeroExt  R0,R0,#+24,#+24
        BL       LCD_WrDat
        ADDS     R6,R6,#+1
??LCD_Fill_2:
        UXTB     R6,R6            ;; ZeroExt  R6,R6,#+24,#+24
        CMP      R6,#+128
        BCC.N    ??LCD_Fill_1
        ADDS     R5,R5,#+1
??LCD_Fill_0:
        UXTB     R5,R5            ;; ZeroExt  R5,R5,#+24,#+24
        CMP      R5,#+8
        BCS.N    ??LCD_Fill_3
        SUBS     R0,R5,#+80
        UXTB     R0,R0            ;; ZeroExt  R0,R0,#+24,#+24
        BL       LCD_WrCmd
        MOVS     R0,#+1
        BL       LCD_WrCmd
        MOVS     R0,#+16
        BL       LCD_WrCmd
        MOVS     R6,#+0
        B.N      ??LCD_Fill_2
//  533 	}
//  534 }
??LCD_Fill_3:
        POP      {R4-R6,PC}       ;; return

        SECTION `.text`:CODE:NOROOT(1)
        THUMB
//  535 void LCD_CLS(void)
//  536 {
LCD_CLS:
        PUSH     {R3-R5,LR}
//  537 	byte y,x;	
//  538 	for(y=0;y<8;y++)
        MOVS     R4,#+0
        B.N      ??LCD_CLS_0
//  539 	{
//  540 		LCD_WrCmd(0xb0+y);
//  541 		LCD_WrCmd(0x01);
//  542 		LCD_WrCmd(0x10); 
//  543 		for(x=0;x<X_WIDTH;x++)
//  544 			LCD_WrDat(0);
??LCD_CLS_1:
        MOVS     R0,#+0
        BL       LCD_WrDat
        ADDS     R5,R5,#+1
??LCD_CLS_2:
        UXTB     R5,R5            ;; ZeroExt  R5,R5,#+24,#+24
        CMP      R5,#+128
        BCC.N    ??LCD_CLS_1
        ADDS     R4,R4,#+1
??LCD_CLS_0:
        UXTB     R4,R4            ;; ZeroExt  R4,R4,#+24,#+24
        CMP      R4,#+8
        BCS.N    ??LCD_CLS_3
        SUBS     R0,R4,#+80
        UXTB     R0,R0            ;; ZeroExt  R0,R0,#+24,#+24
        BL       LCD_WrCmd
        MOVS     R0,#+1
        BL       LCD_WrCmd
        MOVS     R0,#+16
        BL       LCD_WrCmd
        MOVS     R5,#+0
        B.N      ??LCD_CLS_2
//  545 	}
//  546 }
??LCD_CLS_3:
        POP      {R0,R4,R5,PC}    ;; return

        SECTION `.text`:CODE:NOROOT(1)
        THUMB
//  547 void LCD_DLY_ms(word ms)
//  548 {                         
LCD_DLY_ms:
        B.N      ??LCD_DLY_ms_0
//  549   word a;
//  550   while(ms)
//  551   {
//  552     a=13350;
??LCD_DLY_ms_1:
        MOVW     R1,#+13350
//  553     while(a--);
??LCD_DLY_ms_2:
        MOVS     R2,R1
        SUBS     R1,R2,#+1
        UXTH     R2,R2            ;; ZeroExt  R2,R2,#+16,#+16
        CMP      R2,#+0
        BNE.N    ??LCD_DLY_ms_2
//  554     ms--;
        SUBS     R0,R0,#+1
//  555   }
??LCD_DLY_ms_0:
        UXTH     R0,R0            ;; ZeroExt  R0,R0,#+16,#+16
        CMP      R0,#+0
        BNE.N    ??LCD_DLY_ms_1
//  556   return;
        BX       LR               ;; return
//  557 }
//  558 

        SECTION `.text`:CODE:NOROOT(1)
        THUMB
//  559 void LCD_Init(void)        
//  560 {
LCD_Init:
        PUSH     {R4,LR}
//  561         //设置PORTA pin14,pin15为GPIO口 
//  562 	PORTA_PCR14=(0|PORT_PCR_MUX(1));
        LDR.W    R0,??DataTable8_1  ;; 0x40049038
        MOV      R1,#+256
        STR      R1,[R0, #+0]
//  563 	PORTA_PCR15=(0|PORT_PCR_MUX(1)); 
        LDR.W    R0,??DataTable8_2  ;; 0x4004903c
        MOV      R1,#+256
        STR      R1,[R0, #+0]
//  564 	PORTA_PCR16=(0|PORT_PCR_MUX(1));
        LDR.W    R0,??DataTable8_3  ;; 0x40049040
        MOV      R1,#+256
        STR      R1,[R0, #+0]
//  565 	PORTA_PCR17=(0|PORT_PCR_MUX(1)); 
        LDR.W    R0,??DataTable8_4  ;; 0x40049044
        MOV      R1,#+256
        STR      R1,[R0, #+0]
//  566 	
//  567 	//设置PORTA pin14,pin15为输出方向;pin16,pin17为输入方向
//  568 	GPIOA_PDDR=GPIO_PDDR_PDD(GPIO_PIN(14)|GPIO_PIN(15));
        LDR.W    R0,??DataTable8_5  ;; 0x400ff014
        MOV      R1,#+49152
        STR      R1,[R0, #+0]
//  569 	GPIOA_PDOR &= ~GPIO_PDOR_PDO(~GPIO_PIN(14)|~GPIO_PIN(15)); //先读取，然后才能输出
        LDR.W    R0,??DataTable8  ;; 0x400ff000
        LDR      R4,[R0, #+0]
        LDR.W    R0,??DataTable8  ;; 0x400ff000
        MOVS     R1,#+0
        STR      R1,[R0, #+0]
//  570   
//  571 	GPIOA_PDOR |=  GPIO_PDOR_PDO(GPIO_PIN(14));
        LDR.W    R0,??DataTable8  ;; 0x400ff000
        LDR      R0,[R0, #+0]
        ORRS     R0,R0,#0x4000
        LDR.W    R1,??DataTable8  ;; 0x400ff000
        STR      R0,[R1, #+0]
//  572 	//LCD_CS=1;	//预制SLK和SS为高电平   	
//  573 	
//  574 	GPIOA_PDOR &= ~GPIO_PDOR_PDO(GPIO_PIN(16));
        LDR.W    R0,??DataTable8  ;; 0x400ff000
        LDR      R0,[R0, #+0]
        BICS     R0,R0,#0x10000
        LDR.W    R1,??DataTable8  ;; 0x400ff000
        STR      R0,[R1, #+0]
//  575 	LCD_DLY_ms(50);
        MOVS     R0,#+50
        BL       LCD_DLY_ms
//  576 	GPIOA_PDOR |=  GPIO_PDOR_PDO(GPIO_PIN(16));
        LDR.W    R0,??DataTable8  ;; 0x400ff000
        LDR      R0,[R0, #+0]
        ORRS     R0,R0,#0x10000
        LDR.W    R1,??DataTable8  ;; 0x400ff000
        STR      R0,[R1, #+0]
//  577 
//  578   LCD_WrCmd(0xae);//--turn off oled panel
        MOVS     R0,#+174
        BL       LCD_WrCmd
//  579   LCD_WrCmd(0x00);//---set low column address
        MOVS     R0,#+0
        BL       LCD_WrCmd
//  580   LCD_WrCmd(0x10);//---set high column address
        MOVS     R0,#+16
        BL       LCD_WrCmd
//  581   LCD_WrCmd(0x40);//--set start line address  Set Mapping RAM Display Start Line (0x00~0x3F)
        MOVS     R0,#+64
        BL       LCD_WrCmd
//  582   LCD_WrCmd(0x81);//--set contrast control register
        MOVS     R0,#+129
        BL       LCD_WrCmd
//  583   LCD_WrCmd(0xcf); // Set SEG Output Current Brightness
        MOVS     R0,#+207
        BL       LCD_WrCmd
//  584   LCD_WrCmd(0xa1);//--Set SEG/Column Mapping     0xa0左右反置 0xa1正常
        MOVS     R0,#+161
        BL       LCD_WrCmd
//  585   LCD_WrCmd(0xc8);//Set COM/Row Scan Direction   0xc0上下反置 0xc8正常
        MOVS     R0,#+200
        BL       LCD_WrCmd
//  586   LCD_WrCmd(0xa6);//--set normal display
        MOVS     R0,#+166
        BL       LCD_WrCmd
//  587   LCD_WrCmd(0xa8);//--set multiplex ratio(1 to 64)
        MOVS     R0,#+168
        BL       LCD_WrCmd
//  588   LCD_WrCmd(0x3f);//--1/64 duty
        MOVS     R0,#+63
        BL       LCD_WrCmd
//  589   LCD_WrCmd(0xd3);//-set display offset	Shift Mapping RAM Counter (0x00~0x3F)
        MOVS     R0,#+211
        BL       LCD_WrCmd
//  590   LCD_WrCmd(0x00);//-not offset
        MOVS     R0,#+0
        BL       LCD_WrCmd
//  591   LCD_WrCmd(0xd5);//--set display clock divide ratio/oscillator frequency
        MOVS     R0,#+213
        BL       LCD_WrCmd
//  592   LCD_WrCmd(0x80);//--set divide ratio, Set Clock as 100 Frames/Sec
        MOVS     R0,#+128
        BL       LCD_WrCmd
//  593   LCD_WrCmd(0xd9);//--set pre-charge period
        MOVS     R0,#+217
        BL       LCD_WrCmd
//  594   LCD_WrCmd(0xf1);//Set Pre-Charge as 15 Clocks & Discharge as 1 Clock
        MOVS     R0,#+241
        BL       LCD_WrCmd
//  595   LCD_WrCmd(0xda);//--set com pins hardware configuration
        MOVS     R0,#+218
        BL       LCD_WrCmd
//  596   LCD_WrCmd(0x12);
        MOVS     R0,#+18
        BL       LCD_WrCmd
//  597   LCD_WrCmd(0xdb);//--set vcomh
        MOVS     R0,#+219
        BL       LCD_WrCmd
//  598   LCD_WrCmd(0x40);//Set VCOM Deselect Level
        MOVS     R0,#+64
        BL       LCD_WrCmd
//  599   LCD_WrCmd(0x20);//-Set Page Addressing Mode (0x00/0x01/0x02)
        MOVS     R0,#+32
        BL       LCD_WrCmd
//  600   LCD_WrCmd(0x02);//
        MOVS     R0,#+2
        BL       LCD_WrCmd
//  601   LCD_WrCmd(0x8d);//--set Charge Pump enable/disable
        MOVS     R0,#+141
        BL       LCD_WrCmd
//  602   LCD_WrCmd(0x14);//--set(0x10) disable
        MOVS     R0,#+20
        BL       LCD_WrCmd
//  603   LCD_WrCmd(0xa4);// Disable Entire Display On (0xa4/0xa5)
        MOVS     R0,#+164
        BL       LCD_WrCmd
//  604   LCD_WrCmd(0xa6);// Disable Inverse Display On (0xa6/a7) 
        MOVS     R0,#+166
        BL       LCD_WrCmd
//  605   LCD_WrCmd(0xaf);//--turn on oled panel
        MOVS     R0,#+175
        BL       LCD_WrCmd
//  606   LCD_Fill(0x00);  //初始清屏
        MOVS     R0,#+0
        BL       LCD_Fill
//  607   LCD_Set_Pos(0,0);  
        MOVS     R1,#+0
        MOVS     R0,#+0
        BL       LCD_Set_Pos
//  608 	
//  609 } 
        POP      {R4,PC}          ;; return
//  610 //==============================================================
//  611 //函数名： void LCD_PutPixel(byte x,byte y)
//  612 //功能描述：绘制一个点（x,y）
//  613 //参数：真实坐标值(x,y),x的范围0～127，y的范围0～64
//  614 //返回：无
//  615 //==============================================================

        SECTION `.text`:CODE:NOROOT(1)
        THUMB
//  616 void LCD_PutPixel(byte x,byte y)
//  617 {
LCD_PutPixel:
        PUSH     {R4-R6,LR}
        MOVS     R4,R0
        MOVS     R5,R1
//  618 	byte data1;  //data1当前点的数据 
//  619 	 
//  620   LCD_Set_Pos(x,y); 
        MOVS     R1,R5
        UXTB     R1,R1            ;; ZeroExt  R1,R1,#+24,#+24
        MOVS     R0,R4
        UXTB     R0,R0            ;; ZeroExt  R0,R0,#+24,#+24
        BL       LCD_Set_Pos
//  621 	data1 = 0x01<<(y%8); 	
        MOVS     R0,#+1
        UXTB     R5,R5            ;; ZeroExt  R5,R5,#+24,#+24
        MOVS     R1,#+8
        SDIV     R2,R5,R1
        MLS      R2,R2,R1,R5
        LSLS     R6,R0,R2
//  622 	LCD_WrCmd(0xb0+(y>>3));
        UXTB     R5,R5            ;; ZeroExt  R5,R5,#+24,#+24
        LSRS     R0,R5,#+3
        SUBS     R0,R0,#+80
        UXTB     R0,R0            ;; ZeroExt  R0,R0,#+24,#+24
        BL       LCD_WrCmd
//  623 	LCD_WrCmd(((x&0xf0)>>4)|0x10);
        UXTB     R4,R4            ;; ZeroExt  R4,R4,#+24,#+24
        LSRS     R0,R4,#+4
        ORRS     R0,R0,#0x10
        UXTB     R0,R0            ;; ZeroExt  R0,R0,#+24,#+24
        BL       LCD_WrCmd
//  624 	LCD_WrCmd((x&0x0f)|0x00);
        ANDS     R0,R4,#0xF
        BL       LCD_WrCmd
//  625 	LCD_WrDat(data1); 	 	
        MOVS     R0,R6
        UXTB     R0,R0            ;; ZeroExt  R0,R0,#+24,#+24
        BL       LCD_WrDat
//  626 }
        POP      {R4-R6,PC}       ;; return
//  627 //==============================================================
//  628 //函数名： void LCD_Rectangle(byte x1,byte y1,
//  629 //                   byte x2,byte y2,byte color,byte gif)
//  630 //功能描述：绘制一个实心矩形
//  631 //参数：左上角坐标（x1,y1）,右下角坐标（x2，y2）
//  632 //      其中x1、x2的范围0～127，y1，y2的范围0～63，即真实坐标值
//  633 //返回：无
//  634 //==============================================================

        SECTION `.text`:CODE:NOROOT(1)
        THUMB
//  635 void LCD_Rectangle(byte x1,byte y1,byte x2,byte y2,byte gif)
//  636 {
LCD_Rectangle:
        PUSH     {R3-R9,LR}
        MOVS     R5,R0
        MOVS     R6,R1
        MOVS     R7,R2
        MOV      R8,R3
        LDR      R4,[SP, #+32]
//  637 	byte n; 
//  638 		
//  639 	LCD_Set_Pos(x1,y1>>3);
        UXTB     R6,R6            ;; ZeroExt  R6,R6,#+24,#+24
        LSRS     R1,R6,#+3
        MOVS     R0,R5
        UXTB     R0,R0            ;; ZeroExt  R0,R0,#+24,#+24
        BL       LCD_Set_Pos
//  640 	for(n=x1;n<=x2;n++)
        MOV      R9,R5
        B.N      ??LCD_Rectangle_0
//  641 	{
//  642 		LCD_WrDat(0x01<<(y1%8)); 			
??LCD_Rectangle_1:
        MOVS     R0,#+1
        UXTB     R6,R6            ;; ZeroExt  R6,R6,#+24,#+24
        MOVS     R1,#+8
        SDIV     R2,R6,R1
        MLS      R2,R2,R1,R6
        LSLS     R0,R0,R2
        UXTB     R0,R0            ;; ZeroExt  R0,R0,#+24,#+24
        BL       LCD_WrDat
//  643 		if(gif == 1) 	LCD_DLY_ms(50);
        UXTB     R4,R4            ;; ZeroExt  R4,R4,#+24,#+24
        CMP      R4,#+1
        BNE.N    ??LCD_Rectangle_2
        MOVS     R0,#+50
        BL       LCD_DLY_ms
//  644 	}  
??LCD_Rectangle_2:
        ADDS     R9,R9,#+1
??LCD_Rectangle_0:
        UXTB     R7,R7            ;; ZeroExt  R7,R7,#+24,#+24
        UXTB     R9,R9            ;; ZeroExt  R9,R9,#+24,#+24
        CMP      R7,R9
        BCS.N    ??LCD_Rectangle_1
//  645 	LCD_Set_Pos(x1,y2>>3);
        UXTB     R8,R8            ;; ZeroExt  R8,R8,#+24,#+24
        LSRS     R1,R8,#+3
        MOVS     R0,R5
        UXTB     R0,R0            ;; ZeroExt  R0,R0,#+24,#+24
        BL       LCD_Set_Pos
//  646   for(n=x1;n<=x2;n++)
        MOV      R9,R5
        B.N      ??LCD_Rectangle_3
//  647 	{
//  648 		LCD_WrDat(0x01<<(y2%8)); 			
??LCD_Rectangle_4:
        MOVS     R0,#+1
        UXTB     R8,R8            ;; ZeroExt  R8,R8,#+24,#+24
        MOVS     R1,#+8
        SDIV     R2,R8,R1
        MLS      R2,R2,R1,R8
        LSLS     R0,R0,R2
        UXTB     R0,R0            ;; ZeroExt  R0,R0,#+24,#+24
        BL       LCD_WrDat
//  649 		if(gif == 1) 	LCD_DLY_ms(5);
        UXTB     R4,R4            ;; ZeroExt  R4,R4,#+24,#+24
        CMP      R4,#+1
        BNE.N    ??LCD_Rectangle_5
        MOVS     R0,#+5
        BL       LCD_DLY_ms
//  650 	}
??LCD_Rectangle_5:
        ADDS     R9,R9,#+1
??LCD_Rectangle_3:
        UXTB     R7,R7            ;; ZeroExt  R7,R7,#+24,#+24
        UXTB     R9,R9            ;; ZeroExt  R9,R9,#+24,#+24
        CMP      R7,R9
        BCS.N    ??LCD_Rectangle_4
//  651 	
//  652 }  
        POP      {R0,R4-R9,PC}    ;; return
//  653 //==============================================================
//  654 //函数名：LCD_P6x8Str(byte x,byte y,byte *p)
//  655 //功能描述：写入一组标准ASCII字符串
//  656 //参数：显示的位置（x,y），y为页范围0～7，要显示的字符串
//  657 //返回：无
//  658 //==============================================================  

        SECTION `.text`:CODE:NOROOT(1)
        THUMB
//  659 void LCD_P6x8Str(byte x,byte y,byte ch[])
//  660 {
LCD_P6x8Str:
        PUSH     {R3-R9,LR}
        MOVS     R4,R0
        MOVS     R5,R1
        MOVS     R6,R2
//  661   byte c=0,i=0,j=0;      
        MOVS     R7,#+0
        MOVS     R8,#+0
        MOVS     R9,#+0
        B.N      ??LCD_P6x8Str_0
//  662   while (ch[j]!='\0')
//  663   {    
//  664     c =ch[j]-32;
//  665     if(x>126){x=0;y++;}
//  666     LCD_Set_Pos(x,y);    
//  667   	for(i=0;i<6;i++)     
//  668   	  LCD_WrDat(F6x8[c][i]);  
??LCD_P6x8Str_1:
        UXTB     R8,R8            ;; ZeroExt  R8,R8,#+24,#+24
        UXTB     R7,R7            ;; ZeroExt  R7,R7,#+24,#+24
        MOVS     R0,#+6
        ADR.W    R1,F6x8
        MLA      R0,R0,R7,R1
        LDRB     R0,[R8, R0]
        BL       LCD_WrDat
        ADDS     R8,R8,#+1
??LCD_P6x8Str_2:
        UXTB     R8,R8            ;; ZeroExt  R8,R8,#+24,#+24
        CMP      R8,#+6
        BCC.N    ??LCD_P6x8Str_1
//  669   	x+=6;
        ADDS     R4,R4,#+6
//  670   	j++;
        ADDS     R9,R9,#+1
??LCD_P6x8Str_0:
        UXTB     R9,R9            ;; ZeroExt  R9,R9,#+24,#+24
        LDRB     R0,[R9, R6]
        CMP      R0,#+0
        BEQ.N    ??LCD_P6x8Str_3
        UXTB     R9,R9            ;; ZeroExt  R9,R9,#+24,#+24
        LDRB     R0,[R9, R6]
        SUBS     R7,R0,#+32
        UXTB     R4,R4            ;; ZeroExt  R4,R4,#+24,#+24
        CMP      R4,#+127
        BCC.N    ??LCD_P6x8Str_4
        MOVS     R4,#+0
        ADDS     R5,R5,#+1
??LCD_P6x8Str_4:
        MOVS     R1,R5
        UXTB     R1,R1            ;; ZeroExt  R1,R1,#+24,#+24
        MOVS     R0,R4
        UXTB     R0,R0            ;; ZeroExt  R0,R0,#+24,#+24
        BL       LCD_Set_Pos
        MOVS     R8,#+0
        B.N      ??LCD_P6x8Str_2
//  671   }
//  672 }
??LCD_P6x8Str_3:
        POP      {R0,R4-R9,PC}    ;; return
//  673 //==============================================================
//  674 //函数名：LCD_P8x16Str(byte x,byte y,byte *p)
//  675 //功能描述：写入一组标准ASCII字符串
//  676 //参数：显示的位置（x,y），y为页范围0～7，要显示的字符串
//  677 //返回：无
//  678 //==============================================================  

        SECTION `.text`:CODE:NOROOT(1)
        THUMB
//  679 void LCD_P8x16Str(byte x,byte y,byte ch[])
//  680 {
LCD_P8x16Str:
        PUSH     {R3-R9,LR}
        MOVS     R4,R0
        MOVS     R5,R1
        MOVS     R6,R2
//  681   byte c=0,i=0,j=0;
        MOVS     R7,#+0
        MOVS     R8,#+0
        MOVS     R9,#+0
        B.N      ??LCD_P8x16Str_0
//  682         
//  683   while (ch[j]!='\0')
//  684   {    
//  685     c =ch[j]-32;
//  686     if(x>120){x=0;y++;}
//  687     LCD_Set_Pos(x,y);    
//  688   	for(i=0;i<8;i++)     
//  689   	  LCD_WrDat(F8X16[c*16+i]);
//  690   	LCD_Set_Pos(x,y+1);    
//  691   	for(i=0;i<8;i++)     
//  692   	  LCD_WrDat(F8X16[c*16+i+8]);  
??LCD_P8x16Str_1:
        UXTB     R7,R7            ;; ZeroExt  R7,R7,#+24,#+24
        LSLS     R0,R7,#+4
        UXTAB    R0,R0,R8
        ADR.W    R1,F8X16
        ADDS     R0,R0,R1
        LDRB     R0,[R0, #+8]
        BL       LCD_WrDat
        ADDS     R8,R8,#+1
??LCD_P8x16Str_2:
        UXTB     R8,R8            ;; ZeroExt  R8,R8,#+24,#+24
        CMP      R8,#+8
        BCC.N    ??LCD_P8x16Str_1
//  693   	x+=8;
        ADDS     R4,R4,#+8
//  694   	j++;
        ADDS     R9,R9,#+1
??LCD_P8x16Str_0:
        UXTB     R9,R9            ;; ZeroExt  R9,R9,#+24,#+24
        LDRB     R0,[R9, R6]
        CMP      R0,#+0
        BEQ.N    ??LCD_P8x16Str_3
        UXTB     R9,R9            ;; ZeroExt  R9,R9,#+24,#+24
        LDRB     R0,[R9, R6]
        SUBS     R7,R0,#+32
        UXTB     R4,R4            ;; ZeroExt  R4,R4,#+24,#+24
        CMP      R4,#+121
        BCC.N    ??LCD_P8x16Str_4
        MOVS     R4,#+0
        ADDS     R5,R5,#+1
??LCD_P8x16Str_4:
        MOVS     R1,R5
        UXTB     R1,R1            ;; ZeroExt  R1,R1,#+24,#+24
        MOVS     R0,R4
        UXTB     R0,R0            ;; ZeroExt  R0,R0,#+24,#+24
        BL       LCD_Set_Pos
        MOVS     R8,#+0
        B.N      ??LCD_P8x16Str_5
??LCD_P8x16Str_6:
        UXTB     R7,R7            ;; ZeroExt  R7,R7,#+24,#+24
        LSLS     R0,R7,#+4
        UXTAB    R0,R0,R8
        ADR.W    R1,F8X16
        LDRB     R0,[R0, R1]
        BL       LCD_WrDat
        ADDS     R8,R8,#+1
??LCD_P8x16Str_5:
        UXTB     R8,R8            ;; ZeroExt  R8,R8,#+24,#+24
        CMP      R8,#+8
        BCC.N    ??LCD_P8x16Str_6
        ADDS     R1,R5,#+1
        UXTB     R1,R1            ;; ZeroExt  R1,R1,#+24,#+24
        MOVS     R0,R4
        UXTB     R0,R0            ;; ZeroExt  R0,R0,#+24,#+24
        BL       LCD_Set_Pos
        MOVS     R8,#+0
        B.N      ??LCD_P8x16Str_2
//  695   }
//  696 }
??LCD_P8x16Str_3:
        POP      {R0,R4-R9,PC}    ;; return
//  697 //输出汉字字符串

        SECTION `.text`:CODE:NOROOT(1)
        THUMB
//  698 void LCD_P14x16Str(byte x,byte y,byte ch[])
//  699 {
LCD_P14x16Str:
        PUSH     {R3-R9,LR}
        MOVS     R6,R0
        MOVS     R4,R1
        MOVS     R5,R2
//  700 	byte wm=0,ii = 0;
        MOVS     R9,#+0
        MOVS     R7,#+0
//  701 	word adder=1; 
        MOVS     R8,#+1
        B.N      ??LCD_P14x16Str_0
//  702 	
//  703 	while(ch[ii] != '\0')
//  704 	{
//  705   	wm = 0;
//  706   	adder = 1;
//  707   	while(F14x16_Idx[wm] > 127)
//  708   	{
//  709   		if(F14x16_Idx[wm] == ch[ii])
//  710   		{
//  711   			if(F14x16_Idx[wm + 1] == ch[ii + 1])
//  712   			{
//  713   				adder = wm * 14;
//  714   				break;
//  715   			}
//  716   		}
//  717   		wm += 2;			
//  718   	}
//  719   	if(x>118){x=0;y++;}
//  720   	LCD_Set_Pos(x , y); 
//  721   	if(adder != 1)// 显示汉字					
//  722   	{
//  723   		LCD_Set_Pos(x , y);
//  724   		for(wm = 0;wm < 14;wm++)               
//  725   		{
//  726   			LCD_WrDat(F14x16[adder]);	
//  727   			adder += 1;
//  728   		}      
//  729   		LCD_Set_Pos(x,y + 1); 
//  730   		for(wm = 0;wm < 14;wm++)          
//  731   		{
//  732   			LCD_WrDat(F14x16[adder]);
//  733   			adder += 1;
//  734   		}   		
//  735   	}
//  736   	else			  //显示空白字符			
//  737   	{
//  738   		ii += 1;
//  739       LCD_Set_Pos(x,y);
//  740   		for(wm = 0;wm < 16;wm++)
//  741   		{
//  742   				LCD_WrDat(0);
//  743   		}
//  744   		LCD_Set_Pos(x,y + 1);
//  745   		for(wm = 0;wm < 16;wm++)
//  746   		{   		
//  747   				LCD_WrDat(0);	
??LCD_P14x16Str_1:
        MOVS     R0,#+0
        BL       LCD_WrDat
//  748   		}
        ADDS     R9,R9,#+1
??LCD_P14x16Str_2:
        UXTB     R9,R9            ;; ZeroExt  R9,R9,#+24,#+24
        CMP      R9,#+16
        BCC.N    ??LCD_P14x16Str_1
//  749   	}
//  750   	x += 14;
??LCD_P14x16Str_3:
        ADDS     R6,R6,#+14
//  751   	ii += 2;
        ADDS     R7,R7,#+2
??LCD_P14x16Str_0:
        UXTB     R7,R7            ;; ZeroExt  R7,R7,#+24,#+24
        LDRB     R0,[R7, R5]
        CMP      R0,#+0
        BEQ.W    ??LCD_P14x16Str_4
        MOVS     R9,#+0
        MOVS     R8,#+1
        B.N      ??LCD_P14x16Str_5
??LCD_P14x16Str_6:
        ADDS     R9,R9,#+2
??LCD_P14x16Str_5:
        UXTB     R9,R9            ;; ZeroExt  R9,R9,#+24,#+24
        ADR.W    R0,F14x16_Idx
        LDRB     R0,[R9, R0]
        CMP      R0,#+128
        BCC.N    ??LCD_P14x16Str_7
        UXTB     R9,R9            ;; ZeroExt  R9,R9,#+24,#+24
        ADR.W    R0,F14x16_Idx
        LDRB     R0,[R9, R0]
        UXTB     R7,R7            ;; ZeroExt  R7,R7,#+24,#+24
        LDRB     R1,[R7, R5]
        CMP      R0,R1
        BNE.N    ??LCD_P14x16Str_6
        UXTB     R9,R9            ;; ZeroExt  R9,R9,#+24,#+24
        ADR.W    R0,F14x16_Idx
        ADDS     R0,R9,R0
        LDRB     R0,[R0, #+1]
        UXTB     R7,R7            ;; ZeroExt  R7,R7,#+24,#+24
        ADDS     R1,R7,R5
        LDRB     R1,[R1, #+1]
        CMP      R0,R1
        BNE.N    ??LCD_P14x16Str_6
        UXTB     R9,R9            ;; ZeroExt  R9,R9,#+24,#+24
        MOVS     R0,#+14
        MUL      R8,R0,R9
??LCD_P14x16Str_7:
        UXTB     R6,R6            ;; ZeroExt  R6,R6,#+24,#+24
        CMP      R6,#+119
        BCC.N    ??LCD_P14x16Str_8
        MOVS     R6,#+0
        ADDS     R4,R4,#+1
??LCD_P14x16Str_8:
        MOVS     R1,R4
        UXTB     R1,R1            ;; ZeroExt  R1,R1,#+24,#+24
        MOVS     R0,R6
        UXTB     R0,R0            ;; ZeroExt  R0,R0,#+24,#+24
        BL       LCD_Set_Pos
        UXTH     R8,R8            ;; ZeroExt  R8,R8,#+16,#+16
        CMP      R8,#+1
        BEQ.N    ??LCD_P14x16Str_9
        MOVS     R1,R4
        UXTB     R1,R1            ;; ZeroExt  R1,R1,#+24,#+24
        MOVS     R0,R6
        UXTB     R0,R0            ;; ZeroExt  R0,R0,#+24,#+24
        BL       LCD_Set_Pos
        MOVS     R9,#+0
        B.N      ??LCD_P14x16Str_10
??LCD_P14x16Str_11:
        UXTH     R8,R8            ;; ZeroExt  R8,R8,#+16,#+16
        ADR.W    R0,F14x16
        LDRB     R0,[R8, R0]
        BL       LCD_WrDat
        ADDS     R8,R8,#+1
        ADDS     R9,R9,#+1
??LCD_P14x16Str_10:
        UXTB     R9,R9            ;; ZeroExt  R9,R9,#+24,#+24
        CMP      R9,#+14
        BCC.N    ??LCD_P14x16Str_11
        ADDS     R1,R4,#+1
        UXTB     R1,R1            ;; ZeroExt  R1,R1,#+24,#+24
        MOVS     R0,R6
        UXTB     R0,R0            ;; ZeroExt  R0,R0,#+24,#+24
        BL       LCD_Set_Pos
        MOVS     R9,#+0
??LCD_P14x16Str_12:
        UXTB     R9,R9            ;; ZeroExt  R9,R9,#+24,#+24
        CMP      R9,#+14
        BCS.N    ??LCD_P14x16Str_3
        UXTH     R8,R8            ;; ZeroExt  R8,R8,#+16,#+16
        ADR.W    R0,F14x16
        LDRB     R0,[R8, R0]
        BL       LCD_WrDat
        ADDS     R8,R8,#+1
        ADDS     R9,R9,#+1
        B.N      ??LCD_P14x16Str_12
??LCD_P14x16Str_9:
        ADDS     R7,R7,#+1
        MOVS     R1,R4
        UXTB     R1,R1            ;; ZeroExt  R1,R1,#+24,#+24
        MOVS     R0,R6
        UXTB     R0,R0            ;; ZeroExt  R0,R0,#+24,#+24
        BL       LCD_Set_Pos
        MOVS     R9,#+0
        B.N      ??LCD_P14x16Str_13
??LCD_P14x16Str_14:
        MOVS     R0,#+0
        BL       LCD_WrDat
        ADDS     R9,R9,#+1
??LCD_P14x16Str_13:
        UXTB     R9,R9            ;; ZeroExt  R9,R9,#+24,#+24
        CMP      R9,#+16
        BCC.N    ??LCD_P14x16Str_14
        ADDS     R1,R4,#+1
        UXTB     R1,R1            ;; ZeroExt  R1,R1,#+24,#+24
        MOVS     R0,R6
        UXTB     R0,R0            ;; ZeroExt  R0,R0,#+24,#+24
        BL       LCD_Set_Pos
        MOVS     R9,#+0
        B.N      ??LCD_P14x16Str_2
//  752 	}
//  753 }
??LCD_P14x16Str_4:
        POP      {R0,R4-R9,PC}    ;; return
//  754 //输出汉字和字符混合字符串

        SECTION `.text`:CODE:NOROOT(1)
        THUMB
//  755 void LCD_Print(byte x, byte y, byte ch[])
//  756 {
LCD_Print:
        PUSH     {R3-R7,LR}
        MOVS     R4,R0
        MOVS     R5,R1
        MOVS     R6,R2
//  757 	byte ch2[3];
//  758 	byte ii=0;        
        MOVS     R7,#+0
        B.N      ??LCD_Print_0
//  759 	while(ch[ii] != '\0')
//  760 	{
//  761 		if(ch[ii] > 127)
//  762 		{
//  763 			ch2[0] = ch[ii];
??LCD_Print_1:
        UXTB     R7,R7            ;; ZeroExt  R7,R7,#+24,#+24
        LDRB     R0,[R7, R6]
        STRB     R0,[SP, #+0]
//  764 	 		ch2[1] = ch[ii + 1];
        UXTB     R7,R7            ;; ZeroExt  R7,R7,#+24,#+24
        ADDS     R0,R7,R6
        LDRB     R0,[R0, #+1]
        STRB     R0,[SP, #+1]
//  765 			ch2[2] = '\0';			//汉字为两个字节
        MOVS     R0,#+0
        STRB     R0,[SP, #+2]
//  766 			LCD_P14x16Str(x , y, ch2);	//显示汉字
        ADD      R2,SP,#+0
        MOVS     R1,R5
        UXTB     R1,R1            ;; ZeroExt  R1,R1,#+24,#+24
        MOVS     R0,R4
        UXTB     R0,R0            ;; ZeroExt  R0,R0,#+24,#+24
        BL       LCD_P14x16Str
//  767 			x += 14;
        ADDS     R4,R4,#+14
//  768 			ii += 2;
        ADDS     R7,R7,#+2
//  769 		}
??LCD_Print_0:
        UXTB     R7,R7            ;; ZeroExt  R7,R7,#+24,#+24
        LDRB     R0,[R7, R6]
        CMP      R0,#+0
        BEQ.N    ??LCD_Print_2
        UXTB     R7,R7            ;; ZeroExt  R7,R7,#+24,#+24
        LDRB     R0,[R7, R6]
        CMP      R0,#+128
        BCS.N    ??LCD_Print_1
//  770 		else
//  771 		{
//  772 			ch2[0] = ch[ii];	
        UXTB     R7,R7            ;; ZeroExt  R7,R7,#+24,#+24
        LDRB     R0,[R7, R6]
        STRB     R0,[SP, #+0]
//  773 			ch2[1] = '\0';			//字母占一个字节
        MOVS     R0,#+0
        STRB     R0,[SP, #+1]
//  774 			LCD_P8x16Str(x , y , ch2);	//显示字母
        ADD      R2,SP,#+0
        MOVS     R1,R5
        UXTB     R1,R1            ;; ZeroExt  R1,R1,#+24,#+24
        MOVS     R0,R4
        UXTB     R0,R0            ;; ZeroExt  R0,R0,#+24,#+24
        BL       LCD_P8x16Str
//  775 			x += 8;
        ADDS     R4,R4,#+8
//  776 			ii+= 1;
        ADDS     R7,R7,#+1
        B.N      ??LCD_Print_0
//  777 		}
//  778 	}
//  779 } 
??LCD_Print_2:
        POP      {R0,R4-R7,PC}    ;; return
//  780 
//  781 //==============================================================
//  782 //函数名： void Draw_BMP(byte x,byte y)
//  783 //功能描述：显示BMP图片128×64
//  784 //参数：起始点坐标(x,y),x的范围0～127，y为页的范围0～7
//  785 //返回：无
//  786 //==============================================================

        SECTION `.text`:CODE:NOROOT(1)
        THUMB
//  787 void Draw_BMP(byte x0,byte y0,byte x1,byte y1,byte bmp[])
//  788 { 	
Draw_BMP:
        PUSH     {R4-R10,LR}
        MOVS     R4,R0
        MOVS     R5,R2
        MOVS     R6,R3
        LDR      R7,[SP, #+32]
//  789   word ii=0;
        MOVS     R8,#+0
//  790   byte x,y;
//  791   
//  792   if(y1%8==0) y=y1/8;      
        UXTB     R6,R6            ;; ZeroExt  R6,R6,#+24,#+24
        MOVS     R0,#+8
        SDIV     R2,R6,R0
        MLS      R2,R2,R0,R6
        CMP      R2,#+0
        BNE.N    ??Draw_BMP_0
        UXTB     R6,R6            ;; ZeroExt  R6,R6,#+24,#+24
        MOVS     R0,#+8
        SDIV     R10,R6,R0
        B.N      ??Draw_BMP_1
//  793   else y=y1/8+1;
??Draw_BMP_0:
        UXTB     R6,R6            ;; ZeroExt  R6,R6,#+24,#+24
        MOVS     R0,#+8
        SDIV     R0,R6,R0
        ADDS     R10,R0,#+1
//  794 	for(y=y0;y<=y1;y++)
??Draw_BMP_1:
        MOV      R10,R1
        B.N      ??Draw_BMP_2
//  795 	{
//  796 		LCD_Set_Pos(x0,y);				
//  797     for(x=x0;x<x1;x++)
//  798 	    {      
//  799 	    	LCD_WrDat(bmp[ii++]);	    	
??Draw_BMP_3:
        UXTH     R8,R8            ;; ZeroExt  R8,R8,#+16,#+16
        LDRB     R0,[R8, R7]
        BL       LCD_WrDat
        ADDS     R8,R8,#+1
//  800 	    }
        ADDS     R9,R9,#+1
??Draw_BMP_4:
        UXTB     R9,R9            ;; ZeroExt  R9,R9,#+24,#+24
        UXTB     R5,R5            ;; ZeroExt  R5,R5,#+24,#+24
        CMP      R9,R5
        BCC.N    ??Draw_BMP_3
        ADDS     R10,R10,#+1
??Draw_BMP_2:
        UXTB     R6,R6            ;; ZeroExt  R6,R6,#+24,#+24
        UXTB     R10,R10          ;; ZeroExt  R10,R10,#+24,#+24
        CMP      R6,R10
        BCC.N    ??Draw_BMP_5
        MOV      R1,R10
        UXTB     R1,R1            ;; ZeroExt  R1,R1,#+24,#+24
        MOVS     R0,R4
        UXTB     R0,R0            ;; ZeroExt  R0,R0,#+24,#+24
        BL       LCD_Set_Pos
        MOV      R9,R4
        B.N      ??Draw_BMP_4
//  801 	}
//  802 }
??Draw_BMP_5:
        POP      {R4-R10,PC}      ;; return

        SECTION `.text`:CODE:NOROOT(1)
        THUMB
//  803 void Draw_LQLogo(void)
//  804 { 	
Draw_LQLogo:
        PUSH     {R4-R6,LR}
//  805   word ii=0;
        MOVS     R4,#+0
//  806   byte x,y;       
//  807   
//  808 	for(y=0;y<8;y++)
        MOVS     R6,#+0
        B.N      ??Draw_LQLogo_0
//  809 	{
//  810 		LCD_Set_Pos(16,y);				
//  811     for(x=16;x<112;x++)
//  812 	    {      
//  813 	    	LCD_WrDat(longqiu96x64[ii++]);	    	
??Draw_LQLogo_1:
        UXTH     R4,R4            ;; ZeroExt  R4,R4,#+16,#+16
        LDR.N    R0,??DataTable8_6
        LDRB     R0,[R4, R0]
        BL       LCD_WrDat
        ADDS     R4,R4,#+1
//  814 	    }
        ADDS     R5,R5,#+1
??Draw_LQLogo_2:
        UXTB     R5,R5            ;; ZeroExt  R5,R5,#+24,#+24
        CMP      R5,#+112
        BCC.N    ??Draw_LQLogo_1
        ADDS     R6,R6,#+1
??Draw_LQLogo_0:
        UXTB     R6,R6            ;; ZeroExt  R6,R6,#+24,#+24
        CMP      R6,#+8
        BCS.N    ??Draw_LQLogo_3
        MOVS     R1,R6
        UXTB     R1,R1            ;; ZeroExt  R1,R1,#+24,#+24
        MOVS     R0,#+16
        BL       LCD_Set_Pos
        MOVS     R5,#+16
        B.N      ??Draw_LQLogo_2
//  815 	}
//  816 }
??Draw_LQLogo_3:
        POP      {R4-R6,PC}       ;; return

        SECTION `.text`:CODE:NOROOT(2)
        DATA
??DataTable8:
        DC32     0x400ff000

        SECTION `.text`:CODE:NOROOT(2)
        DATA
??DataTable8_1:
        DC32     0x40049038

        SECTION `.text`:CODE:NOROOT(2)
        DATA
??DataTable8_2:
        DC32     0x4004903c

        SECTION `.text`:CODE:NOROOT(2)
        DATA
??DataTable8_3:
        DC32     0x40049040

        SECTION `.text`:CODE:NOROOT(2)
        DATA
??DataTable8_4:
        DC32     0x40049044

        SECTION `.text`:CODE:NOROOT(2)
        DATA
??DataTable8_5:
        DC32     0x400ff014

        SECTION `.text`:CODE:NOROOT(2)
        DATA
??DataTable8_6:
        DC32     longqiu96x64

        SECTION `.text`:CODE:NOROOT(1)
        THUMB
//  817 void Draw_LibLogo(void)
//  818 { 	
Draw_LibLogo:
        PUSH     {R4-R6,LR}
//  819   word ii=0;
        MOVS     R4,#+0
//  820   byte x,y;       
//  821   
//  822 	for(y=0;y<8;y++)
        MOVS     R6,#+0
        B.N      ??Draw_LibLogo_0
//  823 	{
//  824 		LCD_Set_Pos(34,y);				
//  825     for(x=34;x<94;x++)
//  826 	    {      
//  827 	    	LCD_WrDat(LIBLOGO60x58[ii++]);	    	
??Draw_LibLogo_1:
        UXTH     R4,R4            ;; ZeroExt  R4,R4,#+16,#+16
        ADR.W    R0,LIBLOGO60x58
        LDRB     R0,[R4, R0]
        BL       LCD_WrDat
        ADDS     R4,R4,#+1
//  828 	    }
        ADDS     R5,R5,#+1
??Draw_LibLogo_2:
        UXTB     R5,R5            ;; ZeroExt  R5,R5,#+24,#+24
        CMP      R5,#+94
        BCC.N    ??Draw_LibLogo_1
        ADDS     R6,R6,#+1
??Draw_LibLogo_0:
        UXTB     R6,R6            ;; ZeroExt  R6,R6,#+24,#+24
        CMP      R6,#+8
        BCS.N    ??Draw_LibLogo_3
        MOVS     R1,R6
        UXTB     R1,R1            ;; ZeroExt  R1,R1,#+24,#+24
        MOVS     R0,#+34
        BL       LCD_Set_Pos
        MOVS     R5,#+34
        B.N      ??Draw_LibLogo_2
//  829 	}
//  830 } 
??Draw_LibLogo_3:
        POP      {R4-R6,PC}       ;; return

        SECTION `.text`:CODE:NOROOT(2)
        DATA
F6x8:
        ; Initializer data, 552 bytes
        DC8 0, 0, 0, 0, 0, 0, 0, 0, 0, 47
        DC8 0, 0, 0, 0, 7, 0, 7, 0, 0, 20
        DC8 127, 20, 127, 20, 0, 36, 42, 127, 42, 18
        DC8 0, 98, 100, 8, 19, 35, 0, 54, 73, 85
        DC8 34, 80, 0, 0, 5, 3, 0, 0, 0, 0
        DC8 28, 34, 65, 0, 0, 0, 65, 34, 28, 0
        DC8 0, 20, 8, 62, 8, 20, 0, 8, 8, 62
        DC8 8, 8, 0, 0, 0, 160, 96, 0, 0, 8
        DC8 8, 8, 8, 8, 0, 0, 96, 96, 0, 0
        DC8 0, 32, 16, 8, 4, 2, 0, 62, 81, 73
        DC8 69, 62, 0, 0, 66, 127, 64, 0, 0, 66
        DC8 97, 81, 73, 70, 0, 33, 65, 69, 75, 49
        DC8 0, 24, 20, 18, 127, 16, 0, 39, 69, 69
        DC8 69, 57, 0, 60, 74, 73, 73, 48, 0, 1
        DC8 113, 9, 5, 3, 0, 54, 73, 73, 73, 54
        DC8 0, 6, 73, 73, 41, 30, 0, 0, 54, 54
        DC8 0, 0, 0, 0, 86, 54, 0, 0, 0, 8
        DC8 20, 34, 65, 0, 0, 20, 20, 20, 20, 20
        DC8 0, 0, 65, 34, 20, 8, 0, 2, 1, 81
        DC8 9, 6, 0, 50, 73, 89, 81, 62, 0, 124
        DC8 18, 17, 18, 124, 0, 127, 73, 73, 73, 54
        DC8 0, 62, 65, 65, 65, 34, 0, 127, 65, 65
        DC8 34, 28, 0, 127, 73, 73, 73, 65, 0, 127
        DC8 9, 9, 9, 1, 0, 62, 65, 73, 73, 122
        DC8 0, 127, 8, 8, 8, 127, 0, 0, 65, 127
        DC8 65, 0, 0, 32, 64, 65, 63, 1, 0, 127
        DC8 8, 20, 34, 65, 0, 127, 64, 64, 64, 64
        DC8 0, 127, 2, 12, 2, 127, 0, 127, 4, 8
        DC8 16, 127, 0, 62, 65, 65, 65, 62, 0, 127
        DC8 9, 9, 9, 6, 0, 62, 65, 81, 33, 94
        DC8 0, 127, 9, 25, 41, 70, 0, 70, 73, 73
        DC8 73, 49, 0, 1, 1, 127, 1, 1, 0, 63
        DC8 64, 64, 64, 63, 0, 31, 32, 64, 32, 31
        DC8 0, 63, 64, 56, 64, 63, 0, 99, 20, 8
        DC8 20, 99, 0, 7, 8, 112, 8, 7, 0, 97
        DC8 81, 73, 69, 67, 0, 0, 127, 65, 65, 0
        DC8 0, 85, 42, 85, 42, 85, 0, 0, 65, 65
        DC8 127, 0, 0, 4, 2, 1, 2, 4, 0, 64
        DC8 64, 64, 64, 64, 0, 0, 1, 2, 4, 0
        DC8 0, 32, 84, 84, 84, 120, 0, 127, 72, 68
        DC8 68, 56, 0, 56, 68, 68, 68, 32, 0, 56
        DC8 68, 68, 72, 127, 0, 56, 84, 84, 84, 24
        DC8 0, 8, 126, 9, 1, 2, 0, 24, 164, 164
        DC8 164, 124, 0, 127, 8, 4, 4, 120, 0, 0
        DC8 68, 125, 64, 0, 0, 64, 128, 132, 125, 0
        DC8 0, 127, 16, 40, 68, 0, 0, 0, 65, 127
        DC8 64, 0, 0, 124, 4, 24, 4, 120, 0, 124
        DC8 8, 4, 4, 120, 0, 56, 68, 68, 68, 56
        DC8 0, 252, 36, 36, 36, 24, 0, 24, 36, 36
        DC8 24, 252, 0, 124, 8, 4, 4, 8, 0, 72
        DC8 84, 84, 84, 32, 0, 4, 63, 68, 64, 32
        DC8 0, 60, 64, 64, 32, 124, 0, 28, 32, 64
        DC8 32, 28, 0, 60, 64, 48, 64, 60, 0, 68
        DC8 40, 16, 40, 68, 0, 28, 160, 160, 160, 124
        DC8 0, 68, 100, 84, 76, 68, 20, 20, 20, 20
        DC8 20, 20

        SECTION `.text`:CODE:NOROOT(2)
        DATA
F14x16_Idx:
        ; Initializer data, 52 bytes
        DC8 177, 177, 190, 169, 193, 250, 199, 240, 199, 241
        DC8 191, 198, 188, 188, 191, 170, 183, 162, 176, 229
        DC8 214, 199, 196, 220, 179, 181, 202, 215, 209, 161
        DC8 210, 186, 190, 167, 202, 210, 206, 194, 182, 200
        DC8 176, 180, 188, 252, 180, 206, 181, 231, 209, 185
        DC8 0, 0

        SECTION `.text`:CODE:NOROOT(2)
        DATA
F14x16:
        ; Initializer data, 700 bytes
        DC8 32, 32, 32, 32, 255, 0, 0, 0, 255, 64
        DC8 32, 48, 24, 16, 48, 24, 8, 4, 127, 0
        DC8 0, 0, 63, 64, 64, 64, 64, 120, 4, 4
        DC8 228, 36, 36, 37, 38, 36, 36, 36, 228, 6
        DC8 4, 0, 32, 16, 25, 13, 65, 129, 127, 1
        DC8 1, 5, 13, 56, 16, 0, 16, 16, 16, 16
        DC8 16, 255, 16, 240, 18, 28, 208, 16, 16, 16
        DC8 64, 32, 16, 12, 3, 16, 8, 63, 66, 65
        DC8 64, 64, 64, 112, 0, 0, 254, 132, 132, 132
        DC8 132, 130, 130, 130, 130, 192, 128, 0, 32, 32
        DC8 63, 32, 32, 32, 32, 32, 63, 32, 32, 32
        DC8 48, 32, 0, 252, 36, 36, 226, 34, 34, 0
        DC8 254, 2, 34, 82, 142, 2, 16, 31, 16, 8
        DC8 15, 8, 8, 0, 255, 0, 8, 8, 16, 15
        DC8 18, 146, 114, 254, 81, 145, 0, 34, 204, 0
        DC8 0, 255, 0, 0, 2, 1, 0, 255, 0, 4
        DC8 4, 4, 2, 2, 2, 255, 1, 1, 8, 136
        DC8 255, 72, 40, 0, 200, 72, 72, 127, 72, 200
        DC8 72, 8, 65, 128, 127, 0, 64, 64, 32, 19
        DC8 12, 12, 18, 33, 96, 32, 66, 66, 66, 66
        DC8 254, 66, 66, 66, 66, 254, 66, 66, 66, 66
        DC8 64, 32, 16, 12, 3, 0, 0, 0, 0, 127
        DC8 0, 0, 0, 0, 16, 62, 16, 16, 240, 159
        DC8 144, 144, 146, 148, 28, 16, 16, 16, 32, 16
        DC8 136, 135, 65, 70, 40, 16, 40, 39, 64, 192
        DC8 64, 0, 16, 208, 255, 80, 144, 0, 254, 98
        DC8 162, 34, 33, 161, 97, 0, 3, 0, 127, 0
        DC8 17, 14, 65, 32, 17, 10, 14, 49, 96, 32
        DC8 20, 19, 146, 126, 50, 82, 146, 0, 124, 68
        DC8 68, 68, 124, 0, 1, 1, 0, 255, 73, 73
        DC8 73, 73, 73, 73, 255, 0, 0, 0, 184, 151
        DC8 146, 144, 148, 184, 16, 0, 127, 72, 72, 68
        DC8 116, 32, 255, 10, 10, 74, 138, 127, 0, 0
        DC8 63, 68, 68, 66, 114, 32, 4, 132, 196, 164
        DC8 156, 135, 132, 244, 132, 132, 132, 132, 132, 0
        DC8 4, 4, 4, 4, 4, 4, 4, 255, 4, 4
        DC8 4, 4, 4, 4, 4, 4, 228, 37, 38, 52
        DC8 44, 36, 36, 38, 229, 4, 4, 4, 0, 0
        DC8 127, 37, 37, 37, 37, 37, 37, 37, 127, 0
        DC8 0, 0, 64, 66, 204, 0, 80, 78, 200, 72
        DC8 127, 200, 72, 72, 64, 0, 64, 32, 31, 32
        DC8 72, 70, 65, 64, 64, 71, 72, 72, 78, 64
        DC8 97, 6, 224, 24, 132, 228, 28, 132, 101, 190
        DC8 36, 164, 100, 4, 4, 255, 0, 1, 0, 255
        DC8 65, 33, 18, 12, 27, 97, 192, 64, 0, 0
        DC8 0, 126, 42, 42, 42, 42, 42, 42, 126, 0
        DC8 0, 0, 127, 37, 37, 37, 37, 127, 0, 0
        DC8 127, 37, 37, 37, 37, 127, 16, 44, 36, 164
        DC8 100, 37, 38, 36, 36, 164, 36, 52, 44, 4
        DC8 64, 72, 73, 73, 73, 73, 127, 73, 73, 73
        DC8 75, 72, 64, 64, 33, 134, 112, 0, 126, 74
        DC8 74, 74, 74, 74, 126, 0, 0, 0, 254, 1
        DC8 64, 127, 65, 65, 127, 65, 65, 127, 65, 65
        DC8 127, 64, 0, 252, 4, 36, 36, 252, 165, 166
        DC8 164, 252, 36, 36, 36, 4, 96, 31, 128, 128
        DC8 66, 70, 42, 18, 18, 42, 38, 66, 192, 64
        DC8 16, 16, 255, 144, 80, 152, 136, 136, 233, 142
        DC8 136, 136, 152, 136, 66, 129, 127, 0, 64, 64
        DC8 38, 37, 24, 8, 22, 49, 96, 32, 48, 239
        DC8 40, 40, 68, 100, 220, 16, 84, 255, 84, 84
        DC8 124, 16, 1, 127, 33, 81, 34, 20, 15, 20
        DC8 37, 63, 69, 69, 69, 68, 2, 28, 192, 48
        DC8 76, 48, 15, 8, 248, 8, 8, 40, 24, 8
        DC8 94, 67, 32, 32, 16, 8, 4, 3, 1, 6
        DC8 8, 48, 96, 32, 0, 248, 72, 72, 72, 72
        DC8 255, 72, 72, 72, 72, 248, 0, 0, 0, 15
        DC8 4, 4, 4, 4, 63, 68, 68, 68, 68, 79
        DC8 64, 112, 0, 254, 2, 66, 66, 66, 66, 250
        DC8 66, 66, 66, 98, 66, 2, 24, 39, 32, 32
        DC8 32, 32, 32, 63, 32, 33, 46, 36, 32, 32

        SECTION `.text`:CODE:NOROOT(2)
        DATA
F8X16:
        ; Initializer data, 1520 bytes
        DC8 0, 0, 0, 0, 0, 0, 0, 0, 0, 0
        DC8 0, 0, 0, 0, 0, 0, 0, 0, 0, 248
        DC8 0, 0, 0, 0, 0, 0, 0, 51, 48, 0
        DC8 0, 0, 0, 16, 12, 6, 16, 12, 6, 0
        DC8 0, 0, 0, 0, 0, 0, 0, 0, 64, 192
        DC8 120, 64, 192, 120, 64, 0, 4, 63, 4, 4
        DC8 63, 4, 4, 0, 0, 112, 136, 252, 8, 48
        DC8 0, 0, 0, 24, 32, 255, 33, 30, 0, 0
        DC8 240, 8, 240, 0, 224, 24, 0, 0, 0, 33
        DC8 28, 3, 30, 33, 30, 0, 0, 240, 8, 136
        DC8 112, 0, 0, 0, 30, 33, 35, 36, 25, 39
        DC8 33, 16, 16, 22, 14, 0, 0, 0, 0, 0
        DC8 0, 0, 0, 0, 0, 0, 0, 0, 0, 0
        DC8 0, 224, 24, 4, 2, 0, 0, 0, 0, 7
        DC8 24, 32, 64, 0, 0, 2, 4, 24, 224, 0
        DC8 0, 0, 0, 64, 32, 24, 7, 0, 0, 0
        DC8 64, 64, 128, 240, 128, 64, 64, 0, 2, 2
        DC8 1, 15, 1, 2, 2, 0, 0, 0, 0, 240
        DC8 0, 0, 0, 0, 1, 1, 1, 31, 1, 1
        DC8 1, 0, 0, 0, 0, 0, 0, 0, 0, 0
        DC8 128, 176, 112, 0, 0, 0, 0, 0, 0, 0
        DC8 0, 0, 0, 0, 0, 0, 0, 1, 1, 1
        DC8 1, 1, 1, 1, 0, 0, 0, 0, 0, 0
        DC8 0, 0, 0, 48, 48, 0, 0, 0, 0, 0
        DC8 0, 0, 0, 0, 128, 96, 24, 4, 0, 96
        DC8 24, 6, 1, 0, 0, 0, 0, 224, 16, 8
        DC8 8, 16, 224, 0, 0, 15, 16, 32, 32, 16
        DC8 15, 0, 0, 16, 16, 248, 0, 0, 0, 0
        DC8 0, 32, 32, 63, 32, 32, 0, 0, 0, 112
        DC8 8, 8, 8, 136, 112, 0, 0, 48, 40, 36
        DC8 34, 33, 48, 0, 0, 48, 8, 136, 136, 72
        DC8 48, 0, 0, 24, 32, 32, 32, 17, 14, 0
        DC8 0, 0, 192, 32, 16, 248, 0, 0, 0, 7
        DC8 4, 36, 36, 63, 36, 0, 0, 248, 8, 136
        DC8 136, 8, 8, 0, 0, 25, 33, 32, 32, 17
        DC8 14, 0, 0, 224, 16, 136, 136, 24, 0, 0
        DC8 0, 15, 17, 32, 32, 17, 14, 0, 0, 56
        DC8 8, 8, 200, 56, 8, 0, 0, 0, 0, 63
        DC8 0, 0, 0, 0, 0, 112, 136, 8, 8, 136
        DC8 112, 0, 0, 28, 34, 33, 33, 34, 28, 0
        DC8 0, 224, 16, 8, 8, 16, 224, 0, 0, 0
        DC8 49, 34, 34, 17, 15, 0, 0, 0, 0, 192
        DC8 192, 0, 0, 0, 0, 0, 0, 48, 48, 0
        DC8 0, 0, 0, 0, 0, 128, 0, 0, 0, 0
        DC8 0, 0, 128, 96, 0, 0, 0, 0, 0, 0
        DC8 128, 64, 32, 16, 8, 0, 0, 1, 2, 4
        DC8 8, 16, 32, 0, 64, 64, 64, 64, 64, 64
        DC8 64, 0, 4, 4, 4, 4, 4, 4, 4, 0
        DC8 0, 8, 16, 32, 64, 128, 0, 0, 0, 32
        DC8 16, 8, 4, 2, 1, 0, 0, 112, 72, 8
        DC8 8, 8, 240, 0, 0, 0, 0, 48, 54, 1
        DC8 0, 0, 192, 48, 200, 40, 232, 16, 224, 0
        DC8 7, 24, 39, 36, 35, 20, 11, 0, 0, 0
        DC8 192, 56, 224, 0, 0, 0, 32, 60, 35, 2
        DC8 2, 39, 56, 32, 8, 248, 136, 136, 136, 112
        DC8 0, 0, 32, 63, 32, 32, 32, 17, 14, 0
        DC8 192, 48, 8, 8, 8, 8, 56, 0, 7, 24
        DC8 32, 32, 32, 16, 8, 0, 8, 248, 8, 8
        DC8 8, 16, 224, 0, 32, 63, 32, 32, 32, 16
        DC8 15, 0, 8, 248, 136, 136, 232, 8, 16, 0
        DC8 32, 63, 32, 32, 35, 32, 24, 0, 8, 248
        DC8 136, 136, 232, 8, 16, 0, 32, 63, 32, 0
        DC8 3, 0, 0, 0, 192, 48, 8, 8, 8, 56
        DC8 0, 0, 7, 24, 32, 32, 34, 30, 2, 0
        DC8 8, 248, 8, 0, 0, 8, 248, 8, 32, 63
        DC8 33, 1, 1, 33, 63, 32, 0, 8, 8, 248
        DC8 8, 8, 0, 0, 0, 32, 32, 63, 32, 32
        DC8 0, 0, 0, 0, 8, 8, 248, 8, 8, 0
        DC8 192, 128, 128, 128, 127, 0, 0, 0, 8, 248
        DC8 136, 192, 40, 24, 8, 0, 32, 63, 32, 1
        DC8 38, 56, 32, 0, 8, 248, 8, 0, 0, 0
        DC8 0, 0, 32, 63, 32, 32, 32, 32, 48, 0
        DC8 8, 248, 248, 0, 248, 248, 8, 0, 32, 63
        DC8 0, 63, 0, 63, 32, 0, 8, 248, 48, 192
        DC8 0, 8, 248, 8, 32, 63, 32, 0, 7, 24
        DC8 63, 0, 224, 16, 8, 8, 8, 16, 224, 0
        DC8 15, 16, 32, 32, 32, 16, 15, 0, 8, 248
        DC8 8, 8, 8, 8, 240, 0, 32, 63, 33, 1
        DC8 1, 1, 0, 0, 224, 16, 8, 8, 8, 16
        DC8 224, 0, 15, 24, 36, 36, 56, 80, 79, 0
        DC8 8, 248, 136, 136, 136, 136, 112, 0, 32, 63
        DC8 32, 0, 3, 12, 48, 32, 0, 112, 136, 8
        DC8 8, 8, 56, 0, 0, 56, 32, 33, 33, 34
        DC8 28, 0, 24, 8, 8, 248, 8, 8, 24, 0
        DC8 0, 0, 32, 63, 32, 0, 0, 0, 8, 248
        DC8 8, 0, 0, 8, 248, 8, 0, 31, 32, 32
        DC8 32, 32, 31, 0, 8, 120, 136, 0, 0, 200
        DC8 56, 8, 0, 0, 7, 56, 14, 1, 0, 0
        DC8 248, 8, 0, 248, 0, 8, 248, 0, 3, 60
        DC8 7, 0, 7, 60, 3, 0, 8, 24, 104, 128
        DC8 128, 104, 24, 8, 32, 48, 44, 3, 3, 44
        DC8 48, 32, 8, 56, 200, 0, 200, 56, 8, 0
        DC8 0, 0, 32, 63, 32, 0, 0, 0, 16, 8
        DC8 8, 8, 200, 56, 8, 0, 32, 56, 38, 33
        DC8 32, 32, 24, 0, 0, 0, 0, 254, 2, 2
        DC8 2, 0, 0, 0, 0, 127, 64, 64, 64, 0
        DC8 0, 12, 48, 192, 0, 0, 0, 0, 0, 0
        DC8 0, 1, 6, 56, 192, 0, 0, 2, 2, 2
        DC8 254, 0, 0, 0, 0, 64, 64, 64, 127, 0
        DC8 0, 0, 0, 0, 4, 2, 2, 2, 4, 0
        DC8 0, 0, 0, 0, 0, 0, 0, 0, 0, 0
        DC8 0, 0, 0, 0, 0, 0, 128, 128, 128, 128
        DC8 128, 128, 128, 128, 0, 2, 2, 4, 0, 0
        DC8 0, 0, 0, 0, 0, 0, 0, 0, 0, 0
        DC8 0, 0, 128, 128, 128, 128, 0, 0, 0, 25
        DC8 36, 34, 34, 34, 63, 32, 8, 248, 0, 128
        DC8 128, 0, 0, 0, 0, 63, 17, 32, 32, 17
        DC8 14, 0, 0, 0, 0, 128, 128, 128, 0, 0
        DC8 0, 14, 17, 32, 32, 32, 17, 0, 0, 0
        DC8 0, 128, 128, 136, 248, 0, 0, 14, 17, 32
        DC8 32, 16, 63, 32, 0, 0, 128, 128, 128, 128
        DC8 0, 0, 0, 31, 34, 34, 34, 34, 19, 0
        DC8 0, 128, 128, 240, 136, 136, 136, 24, 0, 32
        DC8 32, 63, 32, 32, 0, 0, 0, 0, 128, 128
        DC8 128, 128, 128, 0, 0, 107, 148, 148, 148, 147
        DC8 96, 0, 8, 248, 0, 128, 128, 128, 0, 0
        DC8 32, 63, 33, 0, 0, 32, 63, 32, 0, 128
        DC8 152, 152, 0, 0, 0, 0, 0, 32, 32, 63
        DC8 32, 32, 0, 0, 0, 0, 0, 128, 152, 152
        DC8 0, 0, 0, 192, 128, 128, 128, 127, 0, 0
        DC8 8, 248, 0, 0, 128, 128, 128, 0, 32, 63
        DC8 36, 2, 45, 48, 32, 0, 0, 8, 8, 248
        DC8 0, 0, 0, 0, 0, 32, 32, 63, 32, 32
        DC8 0, 0, 128, 128, 128, 128, 128, 128, 128, 0
        DC8 32, 63, 32, 0, 63, 32, 0, 63, 128, 128
        DC8 0, 128, 128, 128, 0, 0, 32, 63, 33, 0
        DC8 0, 32, 63, 32, 0, 0, 128, 128, 128, 128
        DC8 0, 0, 0, 31, 32, 32, 32, 32, 31, 0
        DC8 128, 128, 0, 128, 128, 0, 0, 0, 128, 255
        DC8 161, 32, 32, 17, 14, 0, 0, 0, 0, 128
        DC8 128, 128, 128, 0, 0, 14, 17, 32, 32, 160
        DC8 255, 128, 128, 128, 128, 0, 128, 128, 128, 0
        DC8 32, 32, 63, 33, 32, 0, 1, 0, 0, 0
        DC8 128, 128, 128, 128, 128, 0, 0, 51, 36, 36
        DC8 36, 36, 25, 0, 0, 128, 128, 224, 128, 128
        DC8 0, 0, 0, 0, 0, 31, 32, 32, 0, 0
        DC8 128, 128, 0, 0, 0, 128, 128, 0, 0, 31
        DC8 32, 32, 32, 16, 63, 32, 128, 128, 128, 0
        DC8 0, 128, 128, 128, 0, 1, 14, 48, 8, 6
        DC8 1, 0, 128, 128, 0, 128, 0, 128, 128, 128
        DC8 15, 48, 12, 3, 12, 48, 15, 0, 0, 128
        DC8 128, 0, 128, 128, 128, 0, 0, 32, 49, 46
        DC8 14, 49, 32, 0, 128, 128, 128, 0, 0, 128
        DC8 128, 128, 128, 129, 142, 112, 24, 6, 1, 0
        DC8 0, 128, 128, 128, 128, 128, 128, 0, 0, 33
        DC8 48, 44, 34, 33, 48, 0, 0, 0, 0, 0
        DC8 128, 124, 2, 2, 0, 0, 0, 0, 0, 63
        DC8 64, 64, 0, 0, 0, 0, 255, 0, 0, 0
        DC8 0, 0, 0, 0, 255, 0, 0, 0, 0, 2
        DC8 2, 124, 128, 0, 0, 0, 0, 64, 64, 63
        DC8 0, 0, 0, 0, 0, 6, 1, 1, 2, 2
        DC8 4, 4, 0, 0, 0, 0, 0, 0, 0, 0

        SECTION `.text`:CODE:NOROOT(2)
        DATA
LIBLOGO60x58:
        ; Initializer data, 480 bytes
        DC8 0, 0, 0, 0, 0, 0, 0, 0, 0, 0
        DC8 0, 0, 0, 0, 0, 0, 0, 0, 0, 0
        DC8 0, 0, 0, 0, 0, 0, 0, 0, 0, 0
        DC8 0, 0, 0, 0, 0, 0, 0, 0, 0, 0
        DC8 0, 0, 0, 0, 0, 0, 0, 0, 0, 0
        DC8 0, 0, 0, 0, 0, 0, 0, 0, 0, 0
        DC8 0, 0, 0, 0, 0, 0, 192, 224, 248, 252
        DC8 254, 127, 63, 15, 15, 7, 7, 7, 135, 199
        DC8 199, 199, 231, 239, 255, 255, 255, 239, 231, 231
        DC8 231, 231, 231, 239, 255, 255, 255, 239, 231, 231
        DC8 231, 231, 231, 247, 7, 15, 63, 127, 255, 254
        DC8 252, 240, 192, 0, 0, 0, 0, 0, 0, 0
        DC8 0, 0, 0, 216, 220, 223, 223, 223, 223, 215
        DC8 1, 0, 0, 0, 0, 0, 0, 62, 127, 255
        DC8 255, 227, 225, 225, 255, 255, 255, 224, 224, 224
        DC8 224, 224, 224, 224, 255, 255, 255, 224, 224, 224
        DC8 224, 193, 131, 7, 0, 0, 0, 0, 1, 215
        DC8 223, 223, 223, 223, 220, 216, 0, 0, 0, 0
        DC8 0, 0, 0, 1, 3, 15, 31, 63, 255, 255
        DC8 254, 248, 240, 224, 192, 128, 0, 0, 248, 240
        DC8 224, 192, 192, 192, 255, 255, 255, 192, 192, 192
        DC8 192, 192, 192, 192, 255, 255, 255, 192, 224, 225
        DC8 243, 255, 127, 63, 0, 192, 224, 248, 254, 255
        DC8 255, 255, 63, 31, 7, 1, 0, 0, 0, 0
        DC8 0, 0, 0, 0, 0, 0, 0, 0, 0, 0
        DC8 1, 7, 15, 63, 127, 255, 254, 252, 249, 243
        DC8 193, 129, 1, 1, 255, 255, 255, 1, 1, 1
        DC8 1, 1, 1, 1, 255, 255, 255, 3, 1, 129
        DC8 192, 240, 252, 254, 255, 255, 127, 63, 15, 7
        DC8 3, 0, 0, 0, 0, 0, 0, 0, 0, 0
        DC8 0, 0, 0, 0, 0, 0, 0, 0, 0, 0
        DC8 0, 0, 0, 0, 0, 0, 3, 7, 15, 63
        DC8 127, 255, 255, 255, 251, 243, 227, 195, 3, 3
        DC8 3, 3, 3, 131, 195, 243, 243, 251, 255, 255
        DC8 255, 127, 63, 15, 3, 1, 0, 0, 0, 0
        DC8 0, 0, 0, 0, 0, 0, 0, 0, 0, 0
        DC8 0, 0, 0, 0, 0, 0, 0, 0, 0, 0
        DC8 0, 0, 0, 0, 0, 0, 0, 0, 0, 0
        DC8 0, 0, 3, 7, 7, 31, 63, 127, 255, 254
        DC8 252, 252, 254, 255, 255, 127, 63, 15, 7, 3
        DC8 0, 0, 0, 0, 0, 0, 0, 0, 0, 0
        DC8 0, 0, 0, 0, 0, 0, 0, 0, 0, 0
        DC8 0, 0, 0, 0, 0, 0, 0, 0, 0, 0
        DC8 0, 0, 0, 0, 0, 0, 0, 0, 0, 0
        DC8 0, 0, 0, 0, 0, 0, 0, 0, 0, 3
        DC8 7, 15, 15, 7, 1, 0, 0, 0, 0, 0
        DC8 0, 0, 0, 0, 0, 0, 0, 0, 0, 0
        DC8 0, 0, 0, 0, 0, 0, 0, 0, 0, 0

        SECTION __DLIB_PERTHREAD:DATA:REORDER:NOROOT(0)

        SECTION __DLIB_PERTHREAD_init:DATA:REORDER:NOROOT(0)

        END
// 
//   768 bytes in section .data
// 5 264 bytes in section .text
// 
// 5 264 bytes of CODE memory
//   768 bytes of DATA memory
//
//Errors: none
//Warnings: none
